
ControlParqueadero644.elf:     file format elf32-avr

Sections:
Idx Name          Size      VMA       LMA       File off  Algn
  0 .data         00000044  00800100  00000954  000009e8  2**0
                  CONTENTS, ALLOC, LOAD, DATA
  1 .text         00000954  00000000  00000000  00000094  2**1
                  CONTENTS, ALLOC, LOAD, READONLY, CODE
  2 .bss          00000014  00800144  00800144  00000a2c  2**0
                  ALLOC
  3 .debug_aranges 000000c0  00000000  00000000  00000a2c  2**0
                  CONTENTS, READONLY, DEBUGGING
  4 .debug_pubnames 00000231  00000000  00000000  00000aec  2**0
                  CONTENTS, READONLY, DEBUGGING
  5 .debug_info   000012b6  00000000  00000000  00000d1d  2**0
                  CONTENTS, READONLY, DEBUGGING
  6 .debug_abbrev 00000716  00000000  00000000  00001fd3  2**0
                  CONTENTS, READONLY, DEBUGGING
  7 .debug_line   0000106f  00000000  00000000  000026e9  2**0
                  CONTENTS, READONLY, DEBUGGING
  8 .debug_frame  00000210  00000000  00000000  00003758  2**2
                  CONTENTS, READONLY, DEBUGGING
  9 .debug_str    000003b3  00000000  00000000  00003968  2**0
                  CONTENTS, READONLY, DEBUGGING
 10 .debug_loc    000007e2  00000000  00000000  00003d1b  2**0
                  CONTENTS, READONLY, DEBUGGING
 11 .debug_ranges 000000a8  00000000  00000000  000044fd  2**0
                  CONTENTS, READONLY, DEBUGGING

Disassembly of section .text:

00000000 <__vectors>:
   0:	0c 94 38 00 	jmp	0x70	; 0x70 <__ctors_end>
   4:	0c 94 55 00 	jmp	0xaa	; 0xaa <__bad_interrupt>
   8:	0c 94 55 00 	jmp	0xaa	; 0xaa <__bad_interrupt>
   c:	0c 94 55 00 	jmp	0xaa	; 0xaa <__bad_interrupt>
  10:	0c 94 55 00 	jmp	0xaa	; 0xaa <__bad_interrupt>
  14:	0c 94 55 00 	jmp	0xaa	; 0xaa <__bad_interrupt>
  18:	0c 94 55 00 	jmp	0xaa	; 0xaa <__bad_interrupt>
  1c:	0c 94 55 00 	jmp	0xaa	; 0xaa <__bad_interrupt>
  20:	0c 94 55 00 	jmp	0xaa	; 0xaa <__bad_interrupt>
  24:	0c 94 55 00 	jmp	0xaa	; 0xaa <__bad_interrupt>
  28:	0c 94 55 00 	jmp	0xaa	; 0xaa <__bad_interrupt>
  2c:	0c 94 55 00 	jmp	0xaa	; 0xaa <__bad_interrupt>
  30:	0c 94 55 00 	jmp	0xaa	; 0xaa <__bad_interrupt>
  34:	0c 94 55 00 	jmp	0xaa	; 0xaa <__bad_interrupt>
  38:	0c 94 55 00 	jmp	0xaa	; 0xaa <__bad_interrupt>
  3c:	0c 94 55 00 	jmp	0xaa	; 0xaa <__bad_interrupt>
  40:	0c 94 55 00 	jmp	0xaa	; 0xaa <__bad_interrupt>
  44:	0c 94 55 00 	jmp	0xaa	; 0xaa <__bad_interrupt>
  48:	0c 94 55 00 	jmp	0xaa	; 0xaa <__bad_interrupt>
  4c:	0c 94 55 00 	jmp	0xaa	; 0xaa <__bad_interrupt>
  50:	0c 94 16 02 	jmp	0x42c	; 0x42c <__vector_20>
  54:	0c 94 55 00 	jmp	0xaa	; 0xaa <__bad_interrupt>
  58:	0c 94 66 01 	jmp	0x2cc	; 0x2cc <__vector_22>
  5c:	0c 94 55 00 	jmp	0xaa	; 0xaa <__bad_interrupt>
  60:	0c 94 55 00 	jmp	0xaa	; 0xaa <__bad_interrupt>
  64:	0c 94 55 00 	jmp	0xaa	; 0xaa <__bad_interrupt>
  68:	0c 94 e2 01 	jmp	0x3c4	; 0x3c4 <__vector_26>
  6c:	0c 94 55 00 	jmp	0xaa	; 0xaa <__bad_interrupt>

00000070 <__ctors_end>:
  70:	11 24       	eor	r1, r1
  72:	1f be       	out	0x3f, r1	; 63
  74:	cf ef       	ldi	r28, 0xFF	; 255
  76:	d0 e1       	ldi	r29, 0x10	; 16
  78:	de bf       	out	0x3e, r29	; 62
  7a:	cd bf       	out	0x3d, r28	; 61

0000007c <__do_copy_data>:
  7c:	11 e0       	ldi	r17, 0x01	; 1
  7e:	a0 e0       	ldi	r26, 0x00	; 0
  80:	b1 e0       	ldi	r27, 0x01	; 1
  82:	e4 e5       	ldi	r30, 0x54	; 84
  84:	f9 e0       	ldi	r31, 0x09	; 9
  86:	02 c0       	rjmp	.+4      	; 0x8c <.do_copy_data_start>

00000088 <.do_copy_data_loop>:
  88:	05 90       	lpm	r0, Z+
  8a:	0d 92       	st	X+, r0

0000008c <.do_copy_data_start>:
  8c:	a4 34       	cpi	r26, 0x44	; 68
  8e:	b1 07       	cpc	r27, r17
  90:	d9 f7       	brne	.-10     	; 0x88 <.do_copy_data_loop>

00000092 <__do_clear_bss>:
  92:	11 e0       	ldi	r17, 0x01	; 1
  94:	a4 e4       	ldi	r26, 0x44	; 68
  96:	b1 e0       	ldi	r27, 0x01	; 1
  98:	01 c0       	rjmp	.+2      	; 0x9c <.do_clear_bss_start>

0000009a <.do_clear_bss_loop>:
  9a:	1d 92       	st	X+, r1

0000009c <.do_clear_bss_start>:
  9c:	a8 35       	cpi	r26, 0x58	; 88
  9e:	b1 07       	cpc	r27, r17
  a0:	e1 f7       	brne	.-8      	; 0x9a <.do_clear_bss_loop>
  a2:	0e 94 81 01 	call	0x302	; 0x302 <main>
  a6:	0c 94 a8 04 	jmp	0x950	; 0x950 <_exit>

000000aa <__bad_interrupt>:
  aa:	0c 94 00 00 	jmp	0	; 0x0 <__vectors>

000000ae <LCD_enviarNibble>:
 *			uint8_t rs -> Selector de registro LCD (1:Instruccion, 0:Dato)
 * @PRE: n y rs se encuentran bien definidos
 * @POS: Se envian los datos al LCD
 * @Return: Void
 */
static void LCD_enviarNibble(uint8_t n, uint8_t rs){
  ae:	98 2f       	mov	r25, r24

	LCD_CMD_PORT_OUT &= ~_BV(LCD_RW);
  b0:	12 98       	cbi	0x02, 2	; 2

	if (rs)
  b2:	66 23       	and	r22, r22
  b4:	11 f0       	breq	.+4      	; 0xba <LCD_enviarNibble+0xc>
		LCD_CMD_PORT_OUT |= _BV(LCD_RS);
  b6:	11 9a       	sbi	0x02, 1	; 2
  b8:	01 c0       	rjmp	.+2      	; 0xbc <LCD_enviarNibble+0xe>
	else
		LCD_CMD_PORT_OUT &= ~_BV(LCD_RS);
  ba:	11 98       	cbi	0x02, 1	; 2
	
	LCD_DTA_PORT_OUT &= ~LCD_DTA_BITS;
  bc:	82 b1       	in	r24, 0x02	; 2
  be:	8f 70       	andi	r24, 0x0F	; 15
  c0:	82 b9       	out	0x02, r24	; 2
	LCD_DTA_PORT_OUT |= (n<<LCD_D4) & LCD_DTA_BITS;
  c2:	82 b1       	in	r24, 0x02	; 2
  c4:	92 95       	swap	r25
  c6:	90 7f       	andi	r25, 0xF0	; 240
  c8:	89 2b       	or	r24, r25
  ca:	82 b9       	out	0x02, r24	; 2

static inline uint8_t LCD_pulsoEnable(bool lectura){
	
	uint8_t dato;
	
	LCD_CMD_PORT_OUT |= _BV(LCD_E);
  cc:	13 9a       	sbi	0x02, 3	; 2
    can be achieved.
*/
void
_delay_loop_1(uint8_t __count)
{
	__asm__ volatile (
  ce:	81 e0       	ldi	r24, 0x01	; 1
  d0:	8a 95       	dec	r24
  d2:	f1 f7       	brne	.-4      	; 0xd0 <LCD_enviarNibble+0x22>
	if(lectura)
		dato = LCD_DTA_PORT_IN & LCD_DTA_BITS;
	else
		dato = 0x00;

	LCD_CMD_PORT_OUT &= ~_BV(LCD_E);
  d4:	13 98       	cbi	0x02, 3	; 2
	
	LCD_DTA_PORT_OUT &= ~LCD_DTA_BITS;
	LCD_DTA_PORT_OUT |= (n<<LCD_D4) & LCD_DTA_BITS;
	//LCD_DTA_PORT_OUT |= ((n<<LCD_D4)& LCD_DTA_BITS);
	(void)LCD_pulsoEnable(false);
}
  d6:	08 95       	ret

000000d8 <LCD_enviarByte>:
 * @PRE: Los parametros se encuentran bien definidos
 * @POS: Se envian dos nibbles para completar el dato/instruccion en el controlador del LCD
 * @RETURN: Void
 */

void LCD_enviarByte(uint8_t by, uint8_t rs){
  d8:	0f 93       	push	r16
  da:	1f 93       	push	r17
  dc:	18 2f       	mov	r17, r24
  de:	06 2f       	mov	r16, r22

	LCD_enviarNibble(by>>4, rs);		// Enviamos la parte alta b[7..4]
  e0:	82 95       	swap	r24
  e2:	8f 70       	andi	r24, 0x0F	; 15
  e4:	0e 94 57 00 	call	0xae	; 0xae <LCD_enviarNibble>
	LCD_enviarNibble(by & 0x0F, rs);	// Enviamos la parte baja b[3..0]
  e8:	81 2f       	mov	r24, r17
  ea:	8f 70       	andi	r24, 0x0F	; 15
  ec:	60 2f       	mov	r22, r16
  ee:	0e 94 57 00 	call	0xae	; 0xae <LCD_enviarNibble>
}
  f2:	1f 91       	pop	r17
  f4:	0f 91       	pop	r16
  f6:	08 95       	ret

000000f8 <LCD_recibirNibble>:
 */
static uint8_t LCD_recibirNibble(uint8_t rs){
	
	uint8_t dato;

	LCD_CMD_PORT_OUT |= _BV(LCD_RW);
  f8:	12 9a       	sbi	0x02, 2	; 2

	LCD_DTA_PORT_DDR &= ~LCD_DTA_BITS;
  fa:	91 b1       	in	r25, 0x01	; 1
  fc:	9f 70       	andi	r25, 0x0F	; 15
  fe:	91 b9       	out	0x01, r25	; 1

	if (rs)
 100:	88 23       	and	r24, r24
 102:	11 f0       	breq	.+4      	; 0x108 <LCD_recibirNibble+0x10>
		LCD_CMD_PORT_OUT |= _BV(LCD_RS);
 104:	11 9a       	sbi	0x02, 1	; 2
 106:	01 c0       	rjmp	.+2      	; 0x10a <LCD_recibirNibble+0x12>
	else
		LCD_CMD_PORT_OUT &= ~_BV(LCD_RS);
 108:	11 98       	cbi	0x02, 1	; 2

static inline uint8_t LCD_pulsoEnable(bool lectura){
	
	uint8_t dato;
	
	LCD_CMD_PORT_OUT |= _BV(LCD_E);
 10a:	13 9a       	sbi	0x02, 3	; 2
 10c:	81 e0       	ldi	r24, 0x01	; 1
 10e:	8a 95       	dec	r24
 110:	f1 f7       	brne	.-4      	; 0x10e <LCD_recibirNibble+0x16>
		#endif /* F_CPU > 2000000UL */
		#endif /* F_CPU > 1000000UL */
	#endif /* F_CPU > 4000000UL */

	if(lectura)
		dato = LCD_DTA_PORT_IN & LCD_DTA_BITS;
 112:	80 b1       	in	r24, 0x00	; 0
	else
		dato = 0x00;

	LCD_CMD_PORT_OUT &= ~_BV(LCD_E);
 114:	13 98       	cbi	0x02, 3	; 2
	else
		LCD_CMD_PORT_OUT &= ~_BV(LCD_RS);
	
	dato = LCD_pulsoEnable(true);

	LCD_DTA_PORT_DDR |= LCD_DTA_BITS;
 116:	91 b1       	in	r25, 0x01	; 1
 118:	90 6f       	ori	r25, 0xF0	; 240
 11a:	91 b9       	out	0x01, r25	; 1
	LCD_CMD_PORT_OUT &= ~_BV(LCD_RW);
 11c:	12 98       	cbi	0x02, 2	; 2

	return (dato & LCD_DTA_BITS)>>LCD_D4;


}
 11e:	82 95       	swap	r24
 120:	8f 70       	andi	r24, 0x0F	; 15
 122:	08 95       	ret

00000124 <LCD_recibirByte>:
 * @PRE: Los parametros se encuentran bien definidos
 * @POS: Se reciben dos nibbles para completar el dato/instruccion proveniente del controlador del LCD
 * @RETURN: Void
 */

uint8_t LCD_recibirByte(uint8_t rs){
 124:	0f 93       	push	r16
 126:	1f 93       	push	r17
 128:	18 2f       	mov	r17, r24
	
	uint8_t dato;
	dato = LCD_recibirNibble(rs) << 4;
 12a:	0e 94 7c 00 	call	0xf8	; 0xf8 <LCD_recibirNibble>
 12e:	08 2f       	mov	r16, r24
 130:	02 95       	swap	r16
 132:	00 7f       	andi	r16, 0xF0	; 240
	dato |= LCD_recibirNibble(rs);
 134:	81 2f       	mov	r24, r17
 136:	0e 94 7c 00 	call	0xf8	; 0xf8 <LCD_recibirNibble>
	return dato;

}
 13a:	80 2b       	or	r24, r16
 13c:	1f 91       	pop	r17
 13e:	0f 91       	pop	r16
 140:	08 95       	ret

00000142 <LCD_esperarListo>:
/**
 * Este metodo genera una espera activa mientras se encuentra activada la bandera de ocupado
 * del controlador del LCD.
 */
void LCD_esperarListo(void){
	while( LCD_recibirByte(0) & LCD_BUSYFLAG);
 142:	80 e0       	ldi	r24, 0x00	; 0
 144:	0e 94 92 00 	call	0x124	; 0x124 <LCD_recibirByte>
 148:	87 fd       	sbrc	r24, 7
 14a:	fb cf       	rjmp	.-10     	; 0x142 <LCD_esperarListo>
}
 14c:	08 95       	ret

0000014e <LCD_init>:
 * @PRE: El voltaje ya se debe haber estabilizado tanto en el micro como en el LCD
 * @POS: Se inicializa el protocolo de comunicacion con el controlador del LCD con 
 *		 las opciones escogidas en el archivo 'defines.h'
 * @RETURN: Void
 */
void LCD_init(void){
 14e:	0f 93       	push	r16
 150:	1f 93       	push	r17
	
	LCD_CMD_PORT_DDR |= _BV(LCD_RS)|_BV(LCD_RW)|_BV(LCD_E);
 152:	81 b1       	in	r24, 0x01	; 1
 154:	8e 60       	ori	r24, 0x0E	; 14
 156:	81 b9       	out	0x01, r24	; 1
	LCD_DTA_PORT_DDR |= LCD_DTA_BITS;
 158:	81 b1       	in	r24, 0x01	; 1
 15a:	80 6f       	ori	r24, 0xF0	; 240
 15c:	81 b9       	out	0x01, r24	; 1
    milliseconds can be achieved.
 */
void
_delay_loop_2(uint16_t __count)
{
	__asm__ volatile (
 15e:	80 e4       	ldi	r24, 0x40	; 64
 160:	9c e9       	ldi	r25, 0x9C	; 156
 162:	01 97       	sbiw	r24, 0x01	; 1
 164:	f1 f7       	brne	.-4      	; 0x162 <LCD_init+0x14>
	_delay_ms(20);

	// Se realiza una inicializacion por instrucciones para evitar problemas si
	// la fuente no es capaz de generar una inicializacion por reset automatico

	LCD_enviarNibble(0x03, 0);
 166:	83 e0       	ldi	r24, 0x03	; 3
 168:	60 e0       	ldi	r22, 0x00	; 0
 16a:	0e 94 57 00 	call	0xae	; 0xae <LCD_enviarNibble>
 16e:	80 e1       	ldi	r24, 0x10	; 16
 170:	97 e2       	ldi	r25, 0x27	; 39
 172:	01 97       	sbiw	r24, 0x01	; 1
 174:	f1 f7       	brne	.-4      	; 0x172 <LCD_init+0x24>
	_delay_ms(5);
	LCD_enviarNibble(0x03, 0);
 176:	83 e0       	ldi	r24, 0x03	; 3
 178:	60 e0       	ldi	r22, 0x00	; 0
 17a:	0e 94 57 00 	call	0xae	; 0xae <LCD_enviarNibble>
 17e:	08 ee       	ldi	r16, 0xE8	; 232
 180:	13 e0       	ldi	r17, 0x03	; 3
 182:	c8 01       	movw	r24, r16
 184:	01 97       	sbiw	r24, 0x01	; 1
 186:	f1 f7       	brne	.-4      	; 0x184 <LCD_init+0x36>
	_delay_ms(0.5);
	LCD_enviarNibble(0x03, 0);
 188:	83 e0       	ldi	r24, 0x03	; 3
 18a:	60 e0       	ldi	r22, 0x00	; 0
 18c:	0e 94 57 00 	call	0xae	; 0xae <LCD_enviarNibble>
 190:	c8 01       	movw	r24, r16
 192:	01 97       	sbiw	r24, 0x01	; 1
 194:	f1 f7       	brne	.-4      	; 0x192 <LCD_init+0x44>
	_delay_ms(0.5);


	LCD_enviarNibble( LCD_FNSET>>4, 0);
 196:	82 e0       	ldi	r24, 0x02	; 2
 198:	60 e0       	ldi	r22, 0x00	; 0
 19a:	0e 94 57 00 	call	0xae	; 0xae <LCD_enviarNibble>
	LCD_esperarListo();
 19e:	0e 94 a1 00 	call	0x142	; 0x142 <LCD_esperarListo>
	LCD_enviarByte( LCD_FNSET, 0);
 1a2:	88 e2       	ldi	r24, 0x28	; 40
 1a4:	60 e0       	ldi	r22, 0x00	; 0
 1a6:	0e 94 6c 00 	call	0xd8	; 0xd8 <LCD_enviarByte>
	LCD_esperarListo();
 1aa:	0e 94 a1 00 	call	0x142	; 0x142 <LCD_esperarListo>
	LCD_enviarByte( LCD_DSPCTR, 0);
 1ae:	8c e0       	ldi	r24, 0x0C	; 12
 1b0:	60 e0       	ldi	r22, 0x00	; 0
 1b2:	0e 94 6c 00 	call	0xd8	; 0xd8 <LCD_enviarByte>
	LCD_esperarListo();
 1b6:	0e 94 a1 00 	call	0x142	; 0x142 <LCD_esperarListo>
	LCD_enviarByte( LCD_ENTMOD, 0);
 1ba:	86 e0       	ldi	r24, 0x06	; 6
 1bc:	60 e0       	ldi	r22, 0x00	; 0
 1be:	0e 94 6c 00 	call	0xd8	; 0xd8 <LCD_enviarByte>
	LCD_esperarListo();
 1c2:	0e 94 a1 00 	call	0x142	; 0x142 <LCD_esperarListo>
	LCD_enviarByte( 0x01, 0);
 1c6:	81 e0       	ldi	r24, 0x01	; 1
 1c8:	60 e0       	ldi	r22, 0x00	; 0
 1ca:	0e 94 6c 00 	call	0xd8	; 0xd8 <LCD_enviarByte>
	LCD_esperarListo();
 1ce:	0e 94 a1 00 	call	0x142	; 0x142 <LCD_esperarListo>
	LCD_enviarByte( 0x02, 0);
 1d2:	82 e0       	ldi	r24, 0x02	; 2
 1d4:	60 e0       	ldi	r22, 0x00	; 0
 1d6:	0e 94 6c 00 	call	0xd8	; 0xd8 <LCD_enviarByte>
	LCD_esperarListo();
 1da:	0e 94 a1 00 	call	0x142	; 0x142 <LCD_esperarListo>

}
 1de:	1f 91       	pop	r17
 1e0:	0f 91       	pop	r16
 1e2:	08 95       	ret

000001e4 <USART0_init>:
 * @RETURN: Void
 */
void USART0_init(){

	// Nos aseguramos que la USART se encuentre inactiva y configuracion default
	UCSR0A = 0x20;
 1e4:	80 e2       	ldi	r24, 0x20	; 32
 1e6:	80 93 c0 00 	sts	0x00C0, r24
	UCSR0B = 0x00;
 1ea:	e1 ec       	ldi	r30, 0xC1	; 193
 1ec:	f0 e0       	ldi	r31, 0x00	; 0
 1ee:	10 82       	st	Z, r1
	UCSR0C = 0x06;
 1f0:	86 e0       	ldi	r24, 0x06	; 6
 1f2:	80 93 c2 00 	sts	0x00C2, r24
	

	// Asignamos el valor del valor de la tasa de transmision en baudios
	UBRR0L=UBRRVAL;			//Parte baja del byte
 1f6:	83 e3       	ldi	r24, 0x33	; 51
 1f8:	80 93 c4 00 	sts	0x00C4, r24
	UBRR0H=(UBRRVAL>>8);	//Parte alta del byte
 1fc:	10 92 c5 00 	sts	0x00C5, r1
		case 7: UCSR0C &= ~(_BV(UCSZ00));break;
		case 9: UCSR0B|= _BV(UCSZ02);break;
		default:break;
	}

	UCSR0B |= (INT_TX_COMPLETA)?_BV(TXCIE0):0;
 200:	80 81       	ld	r24, Z
 202:	80 64       	ori	r24, 0x40	; 64
 204:	80 83       	st	Z, r24
	UCSR0B |= (INT_RX_COMPLETA)?_BV(RXCIE0):0;
 206:	80 81       	ld	r24, Z
 208:	80 68       	ori	r24, 0x80	; 128
 20a:	80 83       	st	Z, r24
		default: break;
	}

	if(NUM_STOP==2) UCSR0C |= _BV(USBS0);
	if(CLK_POL) UCSR0C |= _BV(UCPOL0);
}
 20c:	08 95       	ret

0000020e <USART0_EnableTx>:
 * @PRE:    El puerto USART0 se encuentra inicializado
 * @POST:   El puerto USART0 se habilita para transmision 
 * @RETURN: Void
 */
void USART0_EnableTx(){
	UCSR0B |= _BV(TXEN0);
 20e:	e1 ec       	ldi	r30, 0xC1	; 193
 210:	f0 e0       	ldi	r31, 0x00	; 0
 212:	80 81       	ld	r24, Z
 214:	88 60       	ori	r24, 0x08	; 8
 216:	80 83       	st	Z, r24
}
 218:	08 95       	ret

0000021a <USART0_DisableTx>:
 * @PRE:    El puerto USART0 se encuentra inicializado
 * @POST:   El puerto USART0 se deshabilita para transmision 
 * @RETURN: Void
 */
void USART0_DisableTx(){
	UCSR0B &= ~_BV(TXEN0);
 21a:	e1 ec       	ldi	r30, 0xC1	; 193
 21c:	f0 e0       	ldi	r31, 0x00	; 0
 21e:	80 81       	ld	r24, Z
 220:	87 7f       	andi	r24, 0xF7	; 247
 222:	80 83       	st	Z, r24
}
 224:	08 95       	ret

00000226 <USART0_EnableRx>:
 * @PRE:    El puerto USART0 se encuentra inicializado
 * @POST:   El puerto USART0 se habilita para Recepsion 
 * @RETURN: Void
 */
void USART0_EnableRx(){
	UCSR0B |= _BV(RXEN0);
 226:	e1 ec       	ldi	r30, 0xC1	; 193
 228:	f0 e0       	ldi	r31, 0x00	; 0
 22a:	80 81       	ld	r24, Z
 22c:	80 61       	ori	r24, 0x10	; 16
 22e:	80 83       	st	Z, r24
}
 230:	08 95       	ret

00000232 <USART0_DisableRx>:
 * @PRE:    El puerto USART0 se encuentra inicializado
 * @POST:   El puerto USART0 se deshabilita para Recepcion 
 * @RETURN: Void
 */
 void USART0_DisableRx(){
 	UCSR0B &= ~_BV(RXEN0);
 232:	e1 ec       	ldi	r30, 0xC1	; 193
 234:	f0 e0       	ldi	r31, 0x00	; 0
 236:	80 81       	ld	r24, Z
 238:	8f 7e       	andi	r24, 0xEF	; 239
 23a:	80 83       	st	Z, r24
 }
 23c:	08 95       	ret

0000023e <USART0_Enviar>:
  * @PARAMS uint8_t dato -> Dato que se desea enviar
  * @PRE:   El puerto USART0 se encuentra configurado y habilitado para el envio de mensajes+
  * @POST:  Se coloca el mensaje en el buffer de salida de la USART0
  * @RETURN: Void
  */
void USART0_Enviar(uint8_t dato){
 23e:	98 2f       	mov	r25, r24

	// Espera a que se se termina la transmision anterior si esta en curso
	while ( !( UCSR0A & (1<<UDRE0)) );
 240:	80 91 c0 00 	lds	r24, 0x00C0
 244:	85 ff       	sbrs	r24, 5
 246:	fc cf       	rjmp	.-8      	; 0x240 <USART0_Enviar+0x2>

	// Coloca el dato a enviar en el buffer de salida
	UDR0 = dato;
 248:	90 93 c6 00 	sts	0x00C6, r25

}
 24c:	08 95       	ret

0000024e <USART0_Recibir>:
 * @RETURN: uint8_t dato -> El dato recibido en la transmision
 */
uint8_t USART0_Recibir(){

	// Se espera a que se reciba un mensaje si esta no ha llegado todavia
	while ( !(UCSR0A & (1<<RXC0)) );
 24e:	80 91 c0 00 	lds	r24, 0x00C0
 252:	87 ff       	sbrs	r24, 7
 254:	fc cf       	rjmp	.-8      	; 0x24e <USART0_Recibir>

	return UDR0;
 256:	80 91 c6 00 	lds	r24, 0x00C6
}
 25a:	08 95       	ret

0000025c <USART0_EnviarStrLen>:


void USART0_EnviarStrLen(int len, uint8_t *buf){
 25c:	9c 01       	movw	r18, r24
 25e:	fb 01       	movw	r30, r22
 260:	0a c0       	rjmp	.+20     	; 0x276 <USART0_EnviarStrLen+0x1a>

	for (; len > 0; len--){
		USART0_Enviar(*buf++);
 262:	90 81       	ld	r25, Z
  * @RETURN: Void
  */
void USART0_Enviar(uint8_t dato){

	// Espera a que se se termina la transmision anterior si esta en curso
	while ( !( UCSR0A & (1<<UDRE0)) );
 264:	80 91 c0 00 	lds	r24, 0x00C0
 268:	85 ff       	sbrs	r24, 5
 26a:	fc cf       	rjmp	.-8      	; 0x264 <USART0_EnviarStrLen+0x8>


void USART0_EnviarStrLen(int len, uint8_t *buf){

	for (; len > 0; len--){
		USART0_Enviar(*buf++);
 26c:	31 96       	adiw	r30, 0x01	; 1

	// Espera a que se se termina la transmision anterior si esta en curso
	while ( !( UCSR0A & (1<<UDRE0)) );

	// Coloca el dato a enviar en el buffer de salida
	UDR0 = dato;
 26e:	90 93 c6 00 	sts	0x00C6, r25
}


void USART0_EnviarStrLen(int len, uint8_t *buf){

	for (; len > 0; len--){
 272:	21 50       	subi	r18, 0x01	; 1
 274:	30 40       	sbci	r19, 0x00	; 0
 276:	12 16       	cp	r1, r18
 278:	13 06       	cpc	r1, r19
 27a:	9c f3       	brlt	.-26     	; 0x262 <USART0_EnviarStrLen+0x6>
		USART0_Enviar(*buf++);
	}


}
 27c:	08 95       	ret

0000027e <SPI_init>:
void SPI_init(void){

	if(SPI_MSTR){
		// Se inicializa el microcontrolador como Maestro
		// Se configura el pin MISO como entrada; SCK, MOSI y SS como salida
		SPI_DDR &= ~_BV(SPI_MISO);
 27e:	24 98       	cbi	0x04, 4	; 4
		SPI_DDR |= _BV(SPI_SS)|_BV(SPI_SCK)|_BV(SPI_MOSI);
 280:	84 b1       	in	r24, 0x04	; 4
 282:	8a 62       	ori	r24, 0x2A	; 42
 284:	84 b9       	out	0x04, r24	; 4
		SPI_PORT |= _BV(SPI_SS)|_BV(SPI_MOSI)|_BV(SPI_MISO)|_BV(SPI_SCK);
 286:	85 b1       	in	r24, 0x05	; 5
 288:	8a 63       	ori	r24, 0x3A	; 58
 28a:	85 b9       	out	0x05, r24	; 5
		SPI_DDR |= _BV(SPI_MISO);
		SPI_PORT |= _BV(SPI_SS)|_BV(SPI_MOSI)|_BV(SPI_MISO)|_BV(SPI_SCK);

	}

	SPCR = 0x00;
 28c:	1c bc       	out	0x2c, r1	; 44
	SPCR |= (SPI_INT)?_BV(SPIE):0;
 28e:	8c b5       	in	r24, 0x2c	; 44
 290:	8c bd       	out	0x2c, r24	; 44
	SPCR |= (SPI_DATA_ORDER)?_BV(DORD):0;
 292:	8c b5       	in	r24, 0x2c	; 44
 294:	8c bd       	out	0x2c, r24	; 44
	SPCR |= (SPI_MSTR)?_BV(MSTR):0;
 296:	8c b5       	in	r24, 0x2c	; 44
 298:	80 61       	ori	r24, 0x10	; 16
 29a:	8c bd       	out	0x2c, r24	; 44
	SPCR |= (SPI_CPOL)?_BV(CPOL):0;
 29c:	8c b5       	in	r24, 0x2c	; 44
 29e:	8c bd       	out	0x2c, r24	; 44
	SPCR |= (SPI_CHPA)?_BV(CPHA):0;
 2a0:	8c b5       	in	r24, 0x2c	; 44
 2a2:	8c bd       	out	0x2c, r24	; 44

	switch(SPI_SPR){
		case 16:SPCR |= _BV(SPR0);break;
		case 64:SPCR |= _BV(SPR1);break;
 2a4:	8c b5       	in	r24, 0x2c	; 44
 2a6:	82 60       	ori	r24, 0x02	; 2
 2a8:	8c bd       	out	0x2c, r24	; 44
		case 128:SPCR |= _BV(SPR0)|_BV(SPR1);break;
		default:break;
	}

	SPSR = 0x00;
 2aa:	1d bc       	out	0x2d, r1	; 45
	SPSR |= (SPI_2X)?_BV(SPI2X):0;
 2ac:	8d b5       	in	r24, 0x2d	; 45
 2ae:	8d bd       	out	0x2d, r24	; 45

	SPCR |= _BV(SPE);
 2b0:	8c b5       	in	r24, 0x2c	; 44
 2b2:	80 64       	ori	r24, 0x40	; 64
 2b4:	8c bd       	out	0x2c, r24	; 44

}
 2b6:	08 95       	ret

000002b8 <SPI_Enviar>:
 * @RETURN: Void
 */
void SPI_Enviar(uint8_t dato){
	
	// Se inicializa la transmision
	SPDR = dato;
 2b8:	8e bd       	out	0x2e, r24	; 46
	// Se espera a que la transmision se complete
	while(!(SPSR & _BV(SPIF)));
 2ba:	0d b4       	in	r0, 0x2d	; 45
 2bc:	07 fe       	sbrs	r0, 7
 2be:	fd cf       	rjmp	.-6      	; 0x2ba <SPI_Enviar+0x2>
}
 2c0:	08 95       	ret

000002c2 <SPI_Recibir>:
 * @RETURN: uint8_t dato -> El dato recibido en la transmision
 */
uint8_t SPI_Recibir(){

	// Se espera a que la transmision se complete
	while(!(SPSR & _BV(SPIF)));
 2c2:	0d b4       	in	r0, 0x2d	; 45
 2c4:	07 fe       	sbrs	r0, 7
 2c6:	fd cf       	rjmp	.-6      	; 0x2c2 <SPI_Recibir>
	return SPDR;
 2c8:	8e b5       	in	r24, 0x2e	; 46
}
 2ca:	08 95       	ret

000002cc <__vector_22>:
	USART0_Enviar(dato);
}


ISR(USART0_TX_vect) 
{
 2cc:	1f 92       	push	r1
 2ce:	0f 92       	push	r0
 2d0:	0f b6       	in	r0, 0x3f	; 63
 2d2:	0f 92       	push	r0
 2d4:	11 24       	eor	r1, r1
	//LCD_enviarDTA(0xFF);LCD_esperarListo();
}
 2d6:	0f 90       	pop	r0
 2d8:	0f be       	out	0x3f, r0	; 63
 2da:	0f 90       	pop	r0
 2dc:	1f 90       	pop	r1
 2de:	18 95       	reti

000002e0 <initHardware>:
 * @RETURN: Void
 */
void initHardware(){

	// Inicializamos el LCD
	LCD_init();
 2e0:	0e 94 a7 00 	call	0x14e	; 0x14e <LCD_init>

	// Inicializamos el Teclado Matricial
	KBR_DDR  = 0x0F; 
 2e4:	8f e0       	ldi	r24, 0x0F	; 15
 2e6:	8a b9       	out	0x0a, r24	; 10
	KBR_PORT = 0x00;
 2e8:	1b b8       	out	0x0b, r1	; 11

	// Inicializamos Puerto Serial Sincrono (USART0) para comunicacion por modulo RF
	USART0_init();
 2ea:	0e 94 f2 00 	call	0x1e4	; 0x1e4 <USART0_init>
	USART0_EnableTx();
 2ee:	0e 94 07 01 	call	0x20e	; 0x20e <USART0_EnableTx>
	USART0_EnableRx();
 2f2:	0e 94 13 01 	call	0x226	; 0x226 <USART0_EnableRx>

	// Inicializamos el modulo I2C/TWI y el reloj de tiempo real (DS1307)
	sei();
 2f6:	78 94       	sei
	I2C_Init();
 2f8:	0e 94 45 02 	call	0x48a	; 0x48a <I2C_Init>
	DS1307_Init();
 2fc:	0e 94 a0 03 	call	0x740	; 0x740 <DS1307_Init>
}
 300:	08 95       	ret

00000302 <main>:

//  ------------------------------------------------------------------------
//	PROGRAMA PRINCIPAL DEL SISITEMA
//  ------------------------------------------------------------------------

int main(void) {
 302:	80 e9       	ldi	r24, 0x90	; 144
 304:	91 e0       	ldi	r25, 0x01	; 1
 306:	28 ec       	ldi	r18, 0xC8	; 200
 308:	30 e0       	ldi	r19, 0x00	; 0
 30a:	f9 01       	movw	r30, r18
 30c:	31 97       	sbiw	r30, 0x01	; 1
 30e:	f1 f7       	brne	.-4      	; 0x30c <main+0xa>
		__ticks = (uint16_t) (__ms * 10.0);
		while(__ticks)
		{
			// wait 1/10 ms
			_delay_loop_2(((F_CPU) / 4e3) / 10);
			__ticks --;
 310:	01 97       	sbiw	r24, 0x01	; 1
		__ticks = 1;
	else if (__tmp > 65535)
	{
		//	__ticks = requested delay in 1/10 ms
		__ticks = (uint16_t) (__ms * 10.0);
		while(__ticks)
 312:	d9 f7       	brne	.-10     	; 0x30a <main+0x8>


	_delay_ms(40);
	initHardware();
 314:	0e 94 70 01 	call	0x2e0	; 0x2e0 <initHardware>
	sei();	// Enable the Global Interrupt Enable flag so that interrupts can be processed 
 318:	78 94       	sei

	
	LCD_linea1Pos0();LCD_esperarListo();
 31a:	80 e8       	ldi	r24, 0x80	; 128
 31c:	60 e0       	ldi	r22, 0x00	; 0
 31e:	0e 94 6c 00 	call	0xd8	; 0xd8 <LCD_enviarByte>
 322:	0e 94 a1 00 	call	0x142	; 0x142 <LCD_esperarListo>
 326:	28 ee       	ldi	r18, 0xE8	; 232
 328:	33 e0       	ldi	r19, 0x03	; 3
 32a:	48 ec       	ldi	r20, 0xC8	; 200
 32c:	50 e0       	ldi	r21, 0x00	; 0
 32e:	05 c0       	rjmp	.+10     	; 0x33a <main+0x38>
		{
			// wait 1/10 ms
			_delay_loop_2(((F_CPU) / 4e3) / 10);
			__ticks --;
 330:	ca 01       	movw	r24, r20
 332:	01 97       	sbiw	r24, 0x01	; 1
 334:	f1 f7       	brne	.-4      	; 0x332 <main+0x30>
 336:	21 50       	subi	r18, 0x01	; 1
 338:	30 40       	sbci	r19, 0x00	; 0
		__ticks = 1;
	else if (__tmp > 65535)
	{
		//	__ticks = requested delay in 1/10 ms
		__ticks = (uint16_t) (__ms * 10.0);
		while(__ticks)
 33a:	21 15       	cp	r18, r1
 33c:	31 05       	cpc	r19, r1
 33e:	c1 f7       	brne	.-16     	; 0x330 <main+0x2e>
 340:	88 ee       	ldi	r24, 0xE8	; 232
 342:	93 e0       	ldi	r25, 0x03	; 3
 344:	fa 01       	movw	r30, r20
 346:	31 97       	sbiw	r30, 0x01	; 1
 348:	f1 f7       	brne	.-4      	; 0x346 <main+0x44>
		{
			// wait 1/10 ms
			_delay_loop_2(((F_CPU) / 4e3) / 10);
			__ticks --;
 34a:	01 97       	sbiw	r24, 0x01	; 1
		__ticks = 1;
	else if (__tmp > 65535)
	{
		//	__ticks = requested delay in 1/10 ms
		__ticks = (uint16_t) (__ms * 10.0);
		while(__ticks)
 34c:	d9 f7       	brne	.-10     	; 0x344 <main+0x42>
 34e:	88 ee       	ldi	r24, 0xE8	; 232
 350:	93 e0       	ldi	r25, 0x03	; 3
 352:	fa 01       	movw	r30, r20
 354:	31 97       	sbiw	r30, 0x01	; 1
 356:	f1 f7       	brne	.-4      	; 0x354 <main+0x52>
		{
			// wait 1/10 ms
			_delay_loop_2(((F_CPU) / 4e3) / 10);
			__ticks --;
 358:	01 97       	sbiw	r24, 0x01	; 1
		__ticks = 1;
	else if (__tmp > 65535)
	{
		//	__ticks = requested delay in 1/10 ms
		__ticks = (uint16_t) (__ms * 10.0);
		while(__ticks)
 35a:	d9 f7       	brne	.-10     	; 0x352 <main+0x50>
 35c:	88 ee       	ldi	r24, 0xE8	; 232
 35e:	93 e0       	ldi	r25, 0x03	; 3
 360:	fa 01       	movw	r30, r20
 362:	31 97       	sbiw	r30, 0x01	; 1
 364:	f1 f7       	brne	.-4      	; 0x362 <main+0x60>
		{
			// wait 1/10 ms
			_delay_loop_2(((F_CPU) / 4e3) / 10);
			__ticks --;
 366:	01 97       	sbiw	r24, 0x01	; 1
		__ticks = 1;
	else if (__tmp > 65535)
	{
		//	__ticks = requested delay in 1/10 ms
		__ticks = (uint16_t) (__ms * 10.0);
		while(__ticks)
 368:	d9 f7       	brne	.-10     	; 0x360 <main+0x5e>
 36a:	88 ee       	ldi	r24, 0xE8	; 232
 36c:	93 e0       	ldi	r25, 0x03	; 3
 36e:	fa 01       	movw	r30, r20
 370:	31 97       	sbiw	r30, 0x01	; 1
 372:	f1 f7       	brne	.-4      	; 0x370 <main+0x6e>
		{
			// wait 1/10 ms
			_delay_loop_2(((F_CPU) / 4e3) / 10);
			__ticks --;
 374:	01 97       	sbiw	r24, 0x01	; 1
		__ticks = 1;
	else if (__tmp > 65535)
	{
		//	__ticks = requested delay in 1/10 ms
		__ticks = (uint16_t) (__ms * 10.0);
		while(__ticks)
 376:	d9 f7       	brne	.-10     	; 0x36e <main+0x6c>
 378:	88 ee       	ldi	r24, 0xE8	; 232
 37a:	93 e0       	ldi	r25, 0x03	; 3
 37c:	fa 01       	movw	r30, r20
 37e:	31 97       	sbiw	r30, 0x01	; 1
 380:	f1 f7       	brne	.-4      	; 0x37e <main+0x7c>
		{
			// wait 1/10 ms
			_delay_loop_2(((F_CPU) / 4e3) / 10);
			__ticks --;
 382:	01 97       	sbiw	r24, 0x01	; 1
		__ticks = 1;
	else if (__tmp > 65535)
	{
		//	__ticks = requested delay in 1/10 ms
		__ticks = (uint16_t) (__ms * 10.0);
		while(__ticks)
 384:	d9 f7       	brne	.-10     	; 0x37c <main+0x7a>
 386:	88 ee       	ldi	r24, 0xE8	; 232
 388:	93 e0       	ldi	r25, 0x03	; 3
 38a:	fa 01       	movw	r30, r20
 38c:	31 97       	sbiw	r30, 0x01	; 1
 38e:	f1 f7       	brne	.-4      	; 0x38c <main+0x8a>
		{
			// wait 1/10 ms
			_delay_loop_2(((F_CPU) / 4e3) / 10);
			__ticks --;
 390:	01 97       	sbiw	r24, 0x01	; 1
		__ticks = 1;
	else if (__tmp > 65535)
	{
		//	__ticks = requested delay in 1/10 ms
		__ticks = (uint16_t) (__ms * 10.0);
		while(__ticks)
 392:	d9 f7       	brne	.-10     	; 0x38a <main+0x88>
 394:	88 ee       	ldi	r24, 0xE8	; 232
 396:	93 e0       	ldi	r25, 0x03	; 3
 398:	fa 01       	movw	r30, r20
 39a:	31 97       	sbiw	r30, 0x01	; 1
 39c:	f1 f7       	brne	.-4      	; 0x39a <main+0x98>
		{
			// wait 1/10 ms
			_delay_loop_2(((F_CPU) / 4e3) / 10);
			__ticks --;
 39e:	01 97       	sbiw	r24, 0x01	; 1
		__ticks = 1;
	else if (__tmp > 65535)
	{
		//	__ticks = requested delay in 1/10 ms
		__ticks = (uint16_t) (__ms * 10.0);
		while(__ticks)
 3a0:	d9 f7       	brne	.-10     	; 0x398 <main+0x96>
 3a2:	88 ee       	ldi	r24, 0xE8	; 232
 3a4:	93 e0       	ldi	r25, 0x03	; 3
 3a6:	fa 01       	movw	r30, r20
 3a8:	31 97       	sbiw	r30, 0x01	; 1
 3aa:	f1 f7       	brne	.-4      	; 0x3a8 <main+0xa6>
		{
			// wait 1/10 ms
			_delay_loop_2(((F_CPU) / 4e3) / 10);
			__ticks --;
 3ac:	01 97       	sbiw	r24, 0x01	; 1
		__ticks = 1;
	else if (__tmp > 65535)
	{
		//	__ticks = requested delay in 1/10 ms
		__ticks = (uint16_t) (__ms * 10.0);
		while(__ticks)
 3ae:	d9 f7       	brne	.-10     	; 0x3a6 <main+0xa4>
 3b0:	88 ee       	ldi	r24, 0xE8	; 232
 3b2:	93 e0       	ldi	r25, 0x03	; 3
 3b4:	fa 01       	movw	r30, r20
 3b6:	31 97       	sbiw	r30, 0x01	; 1
 3b8:	f1 f7       	brne	.-4      	; 0x3b6 <main+0xb4>
		{
			// wait 1/10 ms
			_delay_loop_2(((F_CPU) / 4e3) / 10);
			__ticks --;
 3ba:	01 97       	sbiw	r24, 0x01	; 1
		__ticks = 1;
	else if (__tmp > 65535)
	{
		//	__ticks = requested delay in 1/10 ms
		__ticks = (uint16_t) (__ms * 10.0);
		while(__ticks)
 3bc:	d9 f7       	brne	.-10     	; 0x3b4 <main+0xb2>
 3be:	28 ee       	ldi	r18, 0xE8	; 232
 3c0:	33 e0       	ldi	r19, 0x03	; 3
 3c2:	b6 cf       	rjmp	.-148    	; 0x330 <main+0x2e>

000003c4 <__vector_26>:
{
	//LCD_enviarDTA(0xFF);LCD_esperarListo();
}

ISR(TWI_vect)
{
 3c4:	1f 92       	push	r1
 3c6:	0f 92       	push	r0
 3c8:	0f b6       	in	r0, 0x3f	; 63
 3ca:	0f 92       	push	r0
 3cc:	11 24       	eor	r1, r1
 3ce:	2f 93       	push	r18
 3d0:	3f 93       	push	r19
 3d2:	4f 93       	push	r20
 3d4:	5f 93       	push	r21
 3d6:	6f 93       	push	r22
 3d8:	7f 93       	push	r23
 3da:	8f 93       	push	r24
 3dc:	9f 93       	push	r25
 3de:	af 93       	push	r26
 3e0:	bf 93       	push	r27
 3e2:	ef 93       	push	r30
 3e4:	ff 93       	push	r31
	LCD_enviarDTA('T');LCD_esperarListo();
 3e6:	84 e5       	ldi	r24, 0x54	; 84
 3e8:	61 e0       	ldi	r22, 0x01	; 1
 3ea:	0e 94 6c 00 	call	0xd8	; 0xd8 <LCD_enviarByte>
 3ee:	0e 94 a1 00 	call	0x142	; 0x142 <LCD_esperarListo>
	LCD_enviarDTA('W');LCD_esperarListo();
 3f2:	87 e5       	ldi	r24, 0x57	; 87
 3f4:	61 e0       	ldi	r22, 0x01	; 1
 3f6:	0e 94 6c 00 	call	0xd8	; 0xd8 <LCD_enviarByte>
 3fa:	0e 94 a1 00 	call	0x142	; 0x142 <LCD_esperarListo>
	LCD_enviarDTA('I');LCD_esperarListo();
 3fe:	89 e4       	ldi	r24, 0x49	; 73
 400:	61 e0       	ldi	r22, 0x01	; 1
 402:	0e 94 6c 00 	call	0xd8	; 0xd8 <LCD_enviarByte>
 406:	0e 94 a1 00 	call	0x142	; 0x142 <LCD_esperarListo>

}
 40a:	ff 91       	pop	r31
 40c:	ef 91       	pop	r30
 40e:	bf 91       	pop	r27
 410:	af 91       	pop	r26
 412:	9f 91       	pop	r25
 414:	8f 91       	pop	r24
 416:	7f 91       	pop	r23
 418:	6f 91       	pop	r22
 41a:	5f 91       	pop	r21
 41c:	4f 91       	pop	r20
 41e:	3f 91       	pop	r19
 420:	2f 91       	pop	r18
 422:	0f 90       	pop	r0
 424:	0f be       	out	0x3f, r0	; 63
 426:	0f 90       	pop	r0
 428:	1f 90       	pop	r1
 42a:	18 95       	reti

0000042c <__vector_20>:

/**
 *  Manejo de la interrupcion generada cuando la USART0 recibe un dato
 */
ISR(USART0_RX_vect) 
{
 42c:	1f 92       	push	r1
 42e:	0f 92       	push	r0
 430:	0f b6       	in	r0, 0x3f	; 63
 432:	0f 92       	push	r0
 434:	11 24       	eor	r1, r1
 436:	1f 93       	push	r17
 438:	2f 93       	push	r18
 43a:	3f 93       	push	r19
 43c:	4f 93       	push	r20
 43e:	5f 93       	push	r21
 440:	6f 93       	push	r22
 442:	7f 93       	push	r23
 444:	8f 93       	push	r24
 446:	9f 93       	push	r25
 448:	af 93       	push	r26
 44a:	bf 93       	push	r27
 44c:	ef 93       	push	r30
 44e:	ff 93       	push	r31
	uint8_t dato = USART0_Recibir();
 450:	0e 94 27 01 	call	0x24e	; 0x24e <USART0_Recibir>
 454:	18 2f       	mov	r17, r24
	LCD_enviarDTA(dato);LCD_esperarListo();
 456:	61 e0       	ldi	r22, 0x01	; 1
 458:	0e 94 6c 00 	call	0xd8	; 0xd8 <LCD_enviarByte>
 45c:	0e 94 a1 00 	call	0x142	; 0x142 <LCD_esperarListo>
	USART0_Enviar(dato);
 460:	81 2f       	mov	r24, r17
 462:	0e 94 1f 01 	call	0x23e	; 0x23e <USART0_Enviar>
}
 466:	ff 91       	pop	r31
 468:	ef 91       	pop	r30
 46a:	bf 91       	pop	r27
 46c:	af 91       	pop	r26
 46e:	9f 91       	pop	r25
 470:	8f 91       	pop	r24
 472:	7f 91       	pop	r23
 474:	6f 91       	pop	r22
 476:	5f 91       	pop	r21
 478:	4f 91       	pop	r20
 47a:	3f 91       	pop	r19
 47c:	2f 91       	pop	r18
 47e:	1f 91       	pop	r17
 480:	0f 90       	pop	r0
 482:	0f be       	out	0x3f, r0	; 63
 484:	0f 90       	pop	r0
 486:	1f 90       	pop	r1
 488:	18 95       	reti

0000048a <I2C_Init>:


void I2C_Init(void){

	// Iniciamos todos los registros en sus valores por defecto
	TWBR = 0x00;	// TWI Bit Rate Register
 48a:	e8 eb       	ldi	r30, 0xB8	; 184
 48c:	f0 e0       	ldi	r31, 0x00	; 0
 48e:	10 82       	st	Z, r1
	TWCR = 0x00;	// TWI Control Register
 490:	10 92 bc 00 	sts	0x00BC, r1
	TWSR = 0xF8;	// TWI Status Register
 494:	88 ef       	ldi	r24, 0xF8	; 248
 496:	80 93 b9 00 	sts	0x00B9, r24
	TWAMR = 0x00;	// TWI Address Mask Register
 49a:	10 92 bd 00 	sts	0x00BD, r1

	TWBR = I2C_TWBR;
 49e:	81 e2       	ldi	r24, 0x21	; 33
 4a0:	80 83       	st	Z, r24
	TWAR = (I2C_ADDR<<1) | I2C_GENCAL;
 4a2:	82 e0       	ldi	r24, 0x02	; 2
 4a4:	80 93 ba 00 	sts	0x00BA, r24

	// Se inicializa como Esclavo, atento a recibir un llamado con ACK
	//TWCR = _BV(TWEA)|_BV(TWEN)|_BV(TWIE);

}
 4a8:	08 95       	ret

000004aa <I2C_Enviar>:


uint8_t I2C_Enviar(uint8_t type){

	switch(type) {
 4aa:	81 30       	cpi	r24, 0x01	; 1
 4ac:	39 f0       	breq	.+14     	; 0x4bc <I2C_Enviar+0x12>
 4ae:	81 30       	cpi	r24, 0x01	; 1
 4b0:	18 f0       	brcs	.+6      	; 0x4b8 <I2C_Enviar+0xe>
 4b2:	82 30       	cpi	r24, 0x02	; 2
 4b4:	61 f4       	brne	.+24     	; 0x4ce <I2C_Enviar+0x24>
 4b6:	06 c0       	rjmp	.+12     	; 0x4c4 <I2C_Enviar+0x1a>
		case I2C_START:    // Send Start Condition
			TWCR = _BV(TWINT)|_BV(TWSTA)|_BV(TWEN);
 4b8:	84 ea       	ldi	r24, 0xA4	; 164
 4ba:	01 c0       	rjmp	.+2      	; 0x4be <I2C_Enviar+0x14>
			break;
			
		case I2C_DATA:     // Send Data
			TWCR = _BV(TWINT)|_BV(TWEN);
 4bc:	84 e8       	ldi	r24, 0x84	; 132
 4be:	80 93 bc 00 	sts	0x00BC, r24
 4c2:	05 c0       	rjmp	.+10     	; 0x4ce <I2C_Enviar+0x24>
			break;

		case I2C_STOP:     // Send Stop Condition
			TWCR = _BV(TWINT)|_BV(TWEN)|_BV(TWSTO);
 4c4:	84 e9       	ldi	r24, 0x94	; 148
 4c6:	80 93 bc 00 	sts	0x00BC, r24
 4ca:	80 e0       	ldi	r24, 0x00	; 0
 4cc:	08 95       	ret
			return 0;
			break;
	}

	// Wait for TWINT flag set in TWCR Register
	while (!(TWCR & _BV(TWINT)));
 4ce:	80 91 bc 00 	lds	r24, 0x00BC
 4d2:	87 ff       	sbrs	r24, 7
 4d4:	fc cf       	rjmp	.-8      	; 0x4ce <I2C_Enviar+0x24>
	// Return TWI Status Register, mask the prescaler bits (TWPS1,TWPS0)
	return (TW_STATUS);
 4d6:	80 91 b9 00 	lds	r24, 0x00B9
 4da:	88 7f       	andi	r24, 0xF8	; 248
}
 4dc:	08 95       	ret

000004de <I2C_EscribirBytes>:


int I2C_EscribirBytes(uint8_t sla_id, uint8_t sla_addr, uint8_t sla_mem_addr, int len, uint8_t *buf){
 4de:	0f 93       	push	r16
 4e0:	1f 93       	push	r17
 4e2:	f8 01       	movw	r30, r16
	uint8_t n=0;
	uint8_t I2C_TWSR;
	int bytesEscritos =0;

	// Deshabilitamos la recepcion de datos
	TWCR &= ~(_BV(TWEA)|_BV(TWEN)|_BV(TWIE));
 4e4:	90 91 bc 00 	lds	r25, 0x00BC
 4e8:	9a 7b       	andi	r25, 0xBA	; 186
 4ea:	90 93 bc 00 	sts	0x00BC, r25
			case TW_MT_ARB_LOST:	goto begin;
			default:				return -1; break;
		}

		// Enviamos la direccion del esclavo  (SLA+W)
		TWDR = (((sla_id & 0x0F)<<4) | ((sla_addr & 0x07)<<1)) | TW_WRITE;
 4ee:	70 e0       	ldi	r23, 0x00	; 0
 4f0:	67 70       	andi	r22, 0x07	; 7
 4f2:	70 70       	andi	r23, 0x00	; 0
 4f4:	66 0f       	add	r22, r22
 4f6:	77 1f       	adc	r23, r23
 4f8:	58 2f       	mov	r21, r24
 4fa:	52 95       	swap	r21
 4fc:	50 7f       	andi	r21, 0xF0	; 240
 4fe:	56 2b       	or	r21, r22
 500:	90 e0       	ldi	r25, 0x00	; 0
		if(n++ >= I2C_MAX_TRIES)
			return -1;
		
	begin:
		// Enviamos condicion de START
		TWCR = _BV(TWINT)|_BV(TWSTA)|_BV(TWEN);		// Enviamos condicion de START
 502:	74 ea       	ldi	r23, 0xA4	; 164
			default:				return -1; break;
		}

		// Enviamos la direccion del esclavo  (SLA+W)
		TWDR = (((sla_id & 0x0F)<<4) | ((sla_addr & 0x07)<<1)) | TW_WRITE;
		TWCR = _BV(TWINT)|_BV(TWEN);				// Enviamos la direccion del esclavo con el bit R/~W para escribir
 504:	64 e8       	ldi	r22, 0x84	; 132

	// Deshabilitamos la recepcion de datos
	TWCR &= ~(_BV(TWEA)|_BV(TWEN)|_BV(TWIE));

	restart:
		if(n++ >= I2C_MAX_TRIES)
 506:	9f 5f       	subi	r25, 0xFF	; 255
 508:	95 36       	cpi	r25, 0x65	; 101
 50a:	09 f4       	brne	.+2      	; 0x50e <I2C_EscribirBytes+0x30>
 50c:	64 c0       	rjmp	.+200    	; 0x5d6 <I2C_EscribirBytes+0xf8>
			return -1;
		
	begin:
		// Enviamos condicion de START
		TWCR = _BV(TWINT)|_BV(TWSTA)|_BV(TWEN);		// Enviamos condicion de START
 50e:	70 93 bc 00 	sts	0x00BC, r23
		while (!(TWCR & _BV(TWINT)));				// Esperamos a que finlaice la transmision
 512:	80 91 bc 00 	lds	r24, 0x00BC
 516:	87 ff       	sbrs	r24, 7
 518:	fc cf       	rjmp	.-8      	; 0x512 <I2C_EscribirBytes+0x34>
		I2C_TWSR = TW_STATUS;
 51a:	80 91 b9 00 	lds	r24, 0x00B9

		switch(I2C_TWSR){
 51e:	88 7f       	andi	r24, 0xF8	; 248
 520:	80 31       	cpi	r24, 0x10	; 16
 522:	29 f0       	breq	.+10     	; 0x52e <I2C_EscribirBytes+0x50>
 524:	88 33       	cpi	r24, 0x38	; 56
 526:	99 f3       	breq	.-26     	; 0x50e <I2C_EscribirBytes+0x30>
 528:	88 30       	cpi	r24, 0x08	; 8
 52a:	09 f0       	breq	.+2      	; 0x52e <I2C_EscribirBytes+0x50>
 52c:	54 c0       	rjmp	.+168    	; 0x5d6 <I2C_EscribirBytes+0xf8>
			case TW_MT_ARB_LOST:	goto begin;
			default:				return -1; break;
		}

		// Enviamos la direccion del esclavo  (SLA+W)
		TWDR = (((sla_id & 0x0F)<<4) | ((sla_addr & 0x07)<<1)) | TW_WRITE;
 52e:	50 93 bb 00 	sts	0x00BB, r21
		TWCR = _BV(TWINT)|_BV(TWEN);				// Enviamos la direccion del esclavo con el bit R/~W para escribir
 532:	60 93 bc 00 	sts	0x00BC, r22
		while (!(TWCR & _BV(TWINT)));				// Esperamos a que finlaice la transmision
 536:	80 91 bc 00 	lds	r24, 0x00BC
 53a:	87 ff       	sbrs	r24, 7
 53c:	fc cf       	rjmp	.-8      	; 0x536 <I2C_EscribirBytes+0x58>
		I2C_TWSR = TWSR & 0xF8;
 53e:	80 91 b9 00 	lds	r24, 0x00B9

		switch(I2C_TWSR){
 542:	88 7f       	andi	r24, 0xF8	; 248
 544:	80 32       	cpi	r24, 0x20	; 32
 546:	f9 f2       	breq	.-66     	; 0x506 <I2C_EscribirBytes+0x28>
 548:	88 33       	cpi	r24, 0x38	; 56
 54a:	09 f3       	breq	.-62     	; 0x50e <I2C_EscribirBytes+0x30>
 54c:	88 31       	cpi	r24, 0x18	; 24
 54e:	d1 f5       	brne	.+116    	; 0x5c4 <I2C_EscribirBytes+0xe6>
			case TW_MT_ARB_LOST:	goto begin;		// Se perdio control del bus, se repite todo el proceso
			default:				goto error;
		}

		// Enviamos la direccion del esclavo donde desamos comenzar a escribir
		TWDR = sla_mem_addr;
 550:	40 93 bb 00 	sts	0x00BB, r20
		TWCR = _BV(TWINT)|_BV(TWEN);				// Enviamos la direccion de memoria del esclavo donde inicia escritura
 554:	60 93 bc 00 	sts	0x00BC, r22
		while (!(TWCR & _BV(TWINT)));				// Esperamos a que finalice la transmision
 558:	80 91 bc 00 	lds	r24, 0x00BC
 55c:	87 ff       	sbrs	r24, 7
 55e:	fc cf       	rjmp	.-8      	; 0x558 <I2C_EscribirBytes+0x7a>
		I2C_TWSR = TW_STATUS;
 560:	80 91 b9 00 	lds	r24, 0x00B9

		switch(I2C_TWSR){
 564:	88 7f       	andi	r24, 0xF8	; 248
 566:	80 33       	cpi	r24, 0x30	; 48
 568:	29 f0       	breq	.+10     	; 0x574 <I2C_EscribirBytes+0x96>
 56a:	88 33       	cpi	r24, 0x38	; 56
 56c:	81 f2       	breq	.-96     	; 0x50e <I2C_EscribirBytes+0x30>
 56e:	88 32       	cpi	r24, 0x28	; 40
 570:	49 f5       	brne	.+82     	; 0x5c4 <I2C_EscribirBytes+0xe6>
 572:	03 c0       	rjmp	.+6      	; 0x57a <I2C_EscribirBytes+0x9c>
 574:	40 e0       	ldi	r20, 0x00	; 0
 576:	50 e0       	ldi	r21, 0x00	; 0
 578:	1b c0       	rjmp	.+54     	; 0x5b0 <I2C_EscribirBytes+0xd2>
 57a:	40 e0       	ldi	r20, 0x00	; 0
 57c:	50 e0       	ldi	r21, 0x00	; 0

		// Enviamos los bytes que desamos escribir
		for(;len>0; len--){
			
			TWDR = *buf++;
			TWCR = _BV(TWINT)|_BV(TWEN);				// Enviamos el byte apuntado por buf 
 57e:	64 e8       	ldi	r22, 0x84	; 132
 580:	11 c0       	rjmp	.+34     	; 0x5a4 <I2C_EscribirBytes+0xc6>
		}

		// Enviamos los bytes que desamos escribir
		for(;len>0; len--){
			
			TWDR = *buf++;
 582:	80 81       	ld	r24, Z
 584:	80 93 bb 00 	sts	0x00BB, r24
			TWCR = _BV(TWINT)|_BV(TWEN);				// Enviamos el byte apuntado por buf 
 588:	60 93 bc 00 	sts	0x00BC, r22
			while (!(TWCR & _BV(TWINT)));				// Esperamos a que finlaice la transmision
 58c:	80 91 bc 00 	lds	r24, 0x00BC
 590:	87 ff       	sbrs	r24, 7
 592:	fc cf       	rjmp	.-8      	; 0x58c <I2C_EscribirBytes+0xae>
			I2C_TWSR = TW_STATUS;
 594:	80 91 b9 00 	lds	r24, 0x00B9

			switch(I2C_TWSR){
 598:	88 7f       	andi	r24, 0xF8	; 248
 59a:	88 32       	cpi	r24, 0x28	; 40
 59c:	99 f4       	brne	.+38     	; 0x5c4 <I2C_EscribirBytes+0xe6>
		}

		// Enviamos los bytes que desamos escribir
		for(;len>0; len--){
			
			TWDR = *buf++;
 59e:	31 96       	adiw	r30, 0x01	; 1
			TWCR = _BV(TWINT)|_BV(TWEN);				// Enviamos el byte apuntado por buf 
			while (!(TWCR & _BV(TWINT)));				// Esperamos a que finlaice la transmision
			I2C_TWSR = TW_STATUS;

			switch(I2C_TWSR){
				case TW_MT_DATA_ACK:	bytesEscritos++; break;
 5a0:	4f 5f       	subi	r20, 0xFF	; 255
 5a2:	5f 4f       	sbci	r21, 0xFF	; 255
	// Return TWI Status Register, mask the prescaler bits (TWPS1,TWPS0)
	return (TW_STATUS);
}


int I2C_EscribirBytes(uint8_t sla_id, uint8_t sla_addr, uint8_t sla_mem_addr, int len, uint8_t *buf){
 5a4:	c9 01       	movw	r24, r18
 5a6:	84 1b       	sub	r24, r20
 5a8:	95 0b       	sbc	r25, r21
			case TW_MT_ARB_LOST:	goto begin;
			default:				goto error;
		}

		// Enviamos los bytes que desamos escribir
		for(;len>0; len--){
 5aa:	18 16       	cp	r1, r24
 5ac:	19 06       	cpc	r1, r25
 5ae:	4c f3       	brlt	.-46     	; 0x582 <I2C_EscribirBytes+0xa4>

		}

	//Enviamos condicion de STOP y retornamos el numero de bytes escritos
	quit:
		TWCR = _BV(TWINT)|_BV(TWEN)|_BV(TWSTO);		// Enviamos condicion de STOP
 5b0:	84 e9       	ldi	r24, 0x94	; 148
 5b2:	80 93 bc 00 	sts	0x00BC, r24
    can be achieved.
*/
void
_delay_loop_1(uint8_t __count)
{
	__asm__ volatile (
 5b6:	8d e0       	ldi	r24, 0x0D	; 13
 5b8:	8a 95       	dec	r24
 5ba:	f1 f7       	brne	.-4      	; 0x5b8 <I2C_EscribirBytes+0xda>
		_delay_us(5);
		// Se inicializa como Esclavo, atento a recibir un llamado con ACK
		TWCR = _BV(TWEA)|_BV(TWEN)|_BV(TWIE);
 5bc:	85 e4       	ldi	r24, 0x45	; 69
 5be:	80 93 bc 00 	sts	0x00BC, r24
 5c2:	0b c0       	rjmp	.+22     	; 0x5da <I2C_EscribirBytes+0xfc>

		return bytesEscritos;

	// Se genera un error, enviamos condicion de STOP para liberar bus y retornamos -1 indicando el error
	error:
		TWCR = _BV(TWINT)|_BV(TWEN)|_BV(TWSTO);		// Enviamos condicion de STOP
 5c4:	84 e9       	ldi	r24, 0x94	; 148
 5c6:	80 93 bc 00 	sts	0x00BC, r24
 5ca:	8d e0       	ldi	r24, 0x0D	; 13
 5cc:	8a 95       	dec	r24
 5ce:	f1 f7       	brne	.-4      	; 0x5cc <I2C_EscribirBytes+0xee>
		_delay_us(5);
		// Se inicializa como Esclavo, atento a recibir un llamado con ACK
		TWCR = _BV(TWEA)|_BV(TWEN)|_BV(TWIE);
 5d0:	85 e4       	ldi	r24, 0x45	; 69
 5d2:	80 93 bc 00 	sts	0x00BC, r24
		return -1;
 5d6:	4f ef       	ldi	r20, 0xFF	; 255
 5d8:	5f ef       	ldi	r21, 0xFF	; 255

}
 5da:	ca 01       	movw	r24, r20
 5dc:	1f 91       	pop	r17
 5de:	0f 91       	pop	r16
 5e0:	08 95       	ret

000005e2 <I2C_LeerBytes>:




int I2C_LeerBytes(uint8_t sla_id, uint8_t sla_addr, uint8_t sla_mem_addr, int len, uint8_t *buf){
 5e2:	0f 93       	push	r16
 5e4:	1f 93       	push	r17
 5e6:	f8 01       	movw	r30, r16
	uint8_t I2C_TWSR;
	uint8_t I2C_TWCR;
	int bytesLeidos = 0;

	// Deshabilitamos la recepcion de datos
	TWCR &= ~(_BV(TWEA)|_BV(TWEN)|_BV(TWIE));
 5e8:	90 91 bc 00 	lds	r25, 0x00BC
 5ec:	9a 7b       	andi	r25, 0xBA	; 186
 5ee:	90 93 bc 00 	sts	0x00BC, r25
			default:				return -1; break;
		}


		// Enviamos la direccion del esclavo  (SLA+W)
		TWDR = (((sla_id & 0x0F)<<4) | ((sla_addr & 0x07)<<1)) | TW_WRITE;
 5f2:	70 e0       	ldi	r23, 0x00	; 0
 5f4:	67 70       	andi	r22, 0x07	; 7
 5f6:	70 70       	andi	r23, 0x00	; 0
 5f8:	66 0f       	add	r22, r22
 5fa:	77 1f       	adc	r23, r23
 5fc:	98 2f       	mov	r25, r24
 5fe:	92 95       	swap	r25
 600:	90 7f       	andi	r25, 0xF0	; 240
 602:	96 2b       	or	r25, r22
			case TW_MR_ARB_LOST:	goto begin;
			default:				return -1; break;
		}

		// Enviamos la direccion del esclavo  (SLA+R)
		TWDR = (((sla_id & 0x0F)<<4) | ((sla_addr & 0x07)<<1)) | TW_READ;
 604:	79 2f       	mov	r23, r25
 606:	71 60       	ori	r23, 0x01	; 1
 608:	50 e0       	ldi	r21, 0x00	; 0
			return -1;


	begin:
		// Enviamos condicion de START
		TWCR = _BV(TWINT)|_BV(TWSTA)|_BV(TWEN);		// Enviamos condicion de START
 60a:	a4 ea       	ldi	r26, 0xA4	; 164
		}


		// Enviamos la direccion del esclavo  (SLA+W)
		TWDR = (((sla_id & 0x0F)<<4) | ((sla_addr & 0x07)<<1)) | TW_WRITE;
		TWCR = _BV(TWINT)|_BV(TWEN);				// Enviamos la direccion del esclavo con el bit R/~W para escribir
 60c:	64 e8       	ldi	r22, 0x84	; 132

	// Deshabilitamos la recepcion de datos
	TWCR &= ~(_BV(TWEA)|_BV(TWEN)|_BV(TWIE));

	restart:
		if(n++ >= I2C_MAX_TRIES)
 60e:	5f 5f       	subi	r21, 0xFF	; 255
 610:	55 36       	cpi	r21, 0x65	; 101
 612:	09 f4       	brne	.+2      	; 0x616 <I2C_LeerBytes+0x34>
 614:	8f c0       	rjmp	.+286    	; 0x734 <I2C_LeerBytes+0x152>
			return -1;


	begin:
		// Enviamos condicion de START
		TWCR = _BV(TWINT)|_BV(TWSTA)|_BV(TWEN);		// Enviamos condicion de START
 616:	a0 93 bc 00 	sts	0x00BC, r26
		while (!(TWCR & _BV(TWINT)));				// Esperamos a que finlaice la transmision
 61a:	80 91 bc 00 	lds	r24, 0x00BC
 61e:	87 ff       	sbrs	r24, 7
 620:	fc cf       	rjmp	.-8      	; 0x61a <I2C_LeerBytes+0x38>
		I2C_TWSR = TW_STATUS;
 622:	80 91 b9 00 	lds	r24, 0x00B9

		switch(I2C_TWSR){
 626:	88 7f       	andi	r24, 0xF8	; 248
 628:	80 31       	cpi	r24, 0x10	; 16
 62a:	29 f0       	breq	.+10     	; 0x636 <I2C_LeerBytes+0x54>
 62c:	88 33       	cpi	r24, 0x38	; 56
 62e:	99 f3       	breq	.-26     	; 0x616 <I2C_LeerBytes+0x34>
 630:	88 30       	cpi	r24, 0x08	; 8
 632:	09 f0       	breq	.+2      	; 0x636 <I2C_LeerBytes+0x54>
 634:	7f c0       	rjmp	.+254    	; 0x734 <I2C_LeerBytes+0x152>
			default:				return -1; break;
		}


		// Enviamos la direccion del esclavo  (SLA+W)
		TWDR = (((sla_id & 0x0F)<<4) | ((sla_addr & 0x07)<<1)) | TW_WRITE;
 636:	90 93 bb 00 	sts	0x00BB, r25
		TWCR = _BV(TWINT)|_BV(TWEN);				// Enviamos la direccion del esclavo con el bit R/~W para escribir
 63a:	60 93 bc 00 	sts	0x00BC, r22
		while (!(TWCR & _BV(TWINT)));				// Esperamos a que finlaice la transmision
 63e:	80 91 bc 00 	lds	r24, 0x00BC
 642:	87 ff       	sbrs	r24, 7
 644:	fc cf       	rjmp	.-8      	; 0x63e <I2C_LeerBytes+0x5c>
		I2C_TWSR = TW_STATUS;
 646:	80 91 b9 00 	lds	r24, 0x00B9

		switch(I2C_TWSR){
 64a:	88 7f       	andi	r24, 0xF8	; 248
 64c:	80 32       	cpi	r24, 0x20	; 32
 64e:	f9 f2       	breq	.-66     	; 0x60e <I2C_LeerBytes+0x2c>
 650:	88 33       	cpi	r24, 0x38	; 56
 652:	09 f3       	breq	.-62     	; 0x616 <I2C_LeerBytes+0x34>
 654:	88 31       	cpi	r24, 0x18	; 24
 656:	09 f0       	breq	.+2      	; 0x65a <I2C_LeerBytes+0x78>
 658:	64 c0       	rjmp	.+200    	; 0x722 <I2C_LeerBytes+0x140>
			case TW_MT_ARB_LOST:	goto begin;		// Se perdio control del bus, se repite todo el proceso
			default:				goto error;
		}

		// Enviamos la direccion del esclavo donde desamos comenzar a leer
		TWDR = sla_mem_addr;
 65a:	40 93 bb 00 	sts	0x00BB, r20
		TWCR = _BV(TWINT)|_BV(TWEN);				// Enviamos la direccion de memoria del esclavo donde inicia escritura
 65e:	60 93 bc 00 	sts	0x00BC, r22
		while (!(TWCR & _BV(TWINT)));				// Esperamos a que finalice la transmision
 662:	80 91 bc 00 	lds	r24, 0x00BC
 666:	87 ff       	sbrs	r24, 7
 668:	fc cf       	rjmp	.-8      	; 0x662 <I2C_LeerBytes+0x80>
		I2C_TWSR = TW_STATUS;
 66a:	80 91 b9 00 	lds	r24, 0x00B9

		switch(I2C_TWSR){
 66e:	88 7f       	andi	r24, 0xF8	; 248
 670:	80 33       	cpi	r24, 0x30	; 48
 672:	09 f4       	brne	.+2      	; 0x676 <I2C_LeerBytes+0x94>
 674:	4a c0       	rjmp	.+148    	; 0x70a <I2C_LeerBytes+0x128>
 676:	88 33       	cpi	r24, 0x38	; 56
 678:	71 f2       	breq	.-100    	; 0x616 <I2C_LeerBytes+0x34>
 67a:	88 32       	cpi	r24, 0x28	; 40
 67c:	09 f0       	breq	.+2      	; 0x680 <I2C_LeerBytes+0x9e>
 67e:	51 c0       	rjmp	.+162    	; 0x722 <I2C_LeerBytes+0x140>
			default:				goto error;
		}

		// Ahora se debe cambiar de modo Master Transmission al modo Master Receiver
		// Enviamos condicion de REPEATED START
		TWCR = _BV(TWINT)|_BV(TWSTA)|_BV(TWEN);		// Enviamos condicion de START
 680:	a0 93 bc 00 	sts	0x00BC, r26
		while (!(TWCR & _BV(TWINT)));				// Esperamos a que finalice la transmision
 684:	80 91 bc 00 	lds	r24, 0x00BC
 688:	87 ff       	sbrs	r24, 7
 68a:	fc cf       	rjmp	.-8      	; 0x684 <I2C_LeerBytes+0xa2>
		I2C_TWSR = TW_STATUS;
 68c:	80 91 b9 00 	lds	r24, 0x00B9

		switch(I2C_TWSR){
 690:	88 7f       	andi	r24, 0xF8	; 248
 692:	80 31       	cpi	r24, 0x10	; 16
 694:	31 f0       	breq	.+12     	; 0x6a2 <I2C_LeerBytes+0xc0>
 696:	88 33       	cpi	r24, 0x38	; 56
 698:	09 f4       	brne	.+2      	; 0x69c <I2C_LeerBytes+0xba>
 69a:	bd cf       	rjmp	.-134    	; 0x616 <I2C_LeerBytes+0x34>
 69c:	88 30       	cpi	r24, 0x08	; 8
 69e:	09 f0       	breq	.+2      	; 0x6a2 <I2C_LeerBytes+0xc0>
 6a0:	49 c0       	rjmp	.+146    	; 0x734 <I2C_LeerBytes+0x152>
			case TW_MR_ARB_LOST:	goto begin;
			default:				return -1; break;
		}

		// Enviamos la direccion del esclavo  (SLA+R)
		TWDR = (((sla_id & 0x0F)<<4) | ((sla_addr & 0x07)<<1)) | TW_READ;
 6a2:	70 93 bb 00 	sts	0x00BB, r23
		TWCR = _BV(TWINT)|_BV(TWEN);				// Enviamos la direccion del esclavo con el bit R/~W para leer
 6a6:	60 93 bc 00 	sts	0x00BC, r22
		while (!(TWCR & _BV(TWINT)));				// Esperamos a que finlaice la transmision
 6aa:	80 91 bc 00 	lds	r24, 0x00BC
 6ae:	87 ff       	sbrs	r24, 7
 6b0:	fc cf       	rjmp	.-8      	; 0x6aa <I2C_LeerBytes+0xc8>
		I2C_TWSR = TW_STATUS;
 6b2:	80 91 b9 00 	lds	r24, 0x00B9

		switch(I2C_TWSR){
 6b6:	88 7f       	andi	r24, 0xF8	; 248
 6b8:	80 34       	cpi	r24, 0x40	; 64
 6ba:	29 f0       	breq	.+10     	; 0x6c6 <I2C_LeerBytes+0xe4>
 6bc:	88 34       	cpi	r24, 0x48	; 72
 6be:	29 f1       	breq	.+74     	; 0x70a <I2C_LeerBytes+0x128>
 6c0:	88 33       	cpi	r24, 0x38	; 56
 6c2:	79 f5       	brne	.+94     	; 0x722 <I2C_LeerBytes+0x140>
 6c4:	a8 cf       	rjmp	.-176    	; 0x616 <I2C_LeerBytes+0x34>
 6c6:	94 ec       	ldi	r25, 0xC4	; 196
 6c8:	40 e0       	ldi	r20, 0x00	; 0
 6ca:	50 e0       	ldi	r21, 0x00	; 0
 6cc:	1a c0       	rjmp	.+52     	; 0x702 <I2C_LeerBytes+0x120>
		}

		for(I2C_TWCR = _BV(TWINT)|_BV(TWEN)|_BV(TWEA) ; len>0; len--){

		
			if(len==1)
 6ce:	21 30       	cpi	r18, 0x01	; 1
 6d0:	31 05       	cpc	r19, r1
 6d2:	09 f4       	brne	.+2      	; 0x6d6 <I2C_LeerBytes+0xf4>
 6d4:	94 e8       	ldi	r25, 0x84	; 132
				I2C_TWCR = _BV(TWINT) | _BV(TWEN); 	// En el ultimo byte a leer enviamos un NACK para terminar comunicacion
			
			TWCR = I2C_TWCR;
 6d6:	90 93 bc 00 	sts	0x00BC, r25
			while (!(TWCR & _BV(TWINT)));				// Esperamos a que finalice la transmision
 6da:	80 91 bc 00 	lds	r24, 0x00BC
 6de:	87 ff       	sbrs	r24, 7
 6e0:	fc cf       	rjmp	.-8      	; 0x6da <I2C_LeerBytes+0xf8>
			I2C_TWSR = TW_STATUS;
 6e2:	80 91 b9 00 	lds	r24, 0x00B9

			switch(I2C_TWSR){
 6e6:	88 7f       	andi	r24, 0xF8	; 248
 6e8:	80 35       	cpi	r24, 0x50	; 80
 6ea:	21 f0       	breq	.+8      	; 0x6f4 <I2C_LeerBytes+0x112>
 6ec:	88 35       	cpi	r24, 0x58	; 88
 6ee:	c9 f4       	brne	.+50     	; 0x722 <I2C_LeerBytes+0x140>
 6f0:	20 e0       	ldi	r18, 0x00	; 0
 6f2:	30 e0       	ldi	r19, 0x00	; 0
				case TW_MR_DATA_NACK:	len=0;
				case TW_MR_DATA_ACK:	
										*buf++ = TWDR;
 6f4:	80 91 bb 00 	lds	r24, 0x00BB
 6f8:	81 93       	st	Z+, r24
										bytesLeidos++;
 6fa:	4f 5f       	subi	r20, 0xFF	; 255
 6fc:	5f 4f       	sbci	r21, 0xFF	; 255
			case TW_MR_SLA_NACK:	goto quit;		// Se recibio NACK, se reincia handshake para invocar al esclavo
			case TW_MR_ARB_LOST:	goto begin;		// Se perdio control del bus, se repite todo el proceso
			default:				goto error;
		}

		for(I2C_TWCR = _BV(TWINT)|_BV(TWEN)|_BV(TWEA) ; len>0; len--){
 6fe:	21 50       	subi	r18, 0x01	; 1
 700:	30 40       	sbci	r19, 0x00	; 0
 702:	12 16       	cp	r1, r18
 704:	13 06       	cpc	r1, r19
 706:	1c f3       	brlt	.-58     	; 0x6ce <I2C_LeerBytes+0xec>
 708:	02 c0       	rjmp	.+4      	; 0x70e <I2C_LeerBytes+0x12c>

				
		//Enviamos condicion de STOP y retornamos el numero de bytes escritos
		// Leemos todos los bytes desde el esclavo y los almacenamos en el contenedor apuntado por buf

	quit:
 70a:	40 e0       	ldi	r20, 0x00	; 0
 70c:	50 e0       	ldi	r21, 0x00	; 0
		TWCR = _BV(TWINT)|_BV(TWEN)|_BV(TWSTO);		// Enviamos condicion de STOP
 70e:	84 e9       	ldi	r24, 0x94	; 148
 710:	80 93 bc 00 	sts	0x00BC, r24
 714:	8d e0       	ldi	r24, 0x0D	; 13
 716:	8a 95       	dec	r24
 718:	f1 f7       	brne	.-4      	; 0x716 <I2C_LeerBytes+0x134>
		_delay_us(5);
		// Se inicializa como Esclavo, atento a recibir un llamado con ACK
		TWCR = _BV(TWEA)|_BV(TWEN)|_BV(TWIE);
 71a:	85 e4       	ldi	r24, 0x45	; 69
 71c:	80 93 bc 00 	sts	0x00BC, r24
 720:	0b c0       	rjmp	.+22     	; 0x738 <I2C_LeerBytes+0x156>
		return bytesLeidos;

	// Se genera un error, enviamos condicion de STOP para liberar bus y retornamos -1 indicando el error
	error:
		TWCR = _BV(TWINT)|_BV(TWEN)|_BV(TWSTO);		// Enviamos condicion de STOP
 722:	84 e9       	ldi	r24, 0x94	; 148
 724:	80 93 bc 00 	sts	0x00BC, r24
 728:	8d e0       	ldi	r24, 0x0D	; 13
 72a:	8a 95       	dec	r24
 72c:	f1 f7       	brne	.-4      	; 0x72a <I2C_LeerBytes+0x148>
		_delay_us(5);
		// Se inicializa como Esclavo, atento a recibir un llamado con ACK
		TWCR = _BV(TWEA)|_BV(TWEN)|_BV(TWIE);
 72e:	85 e4       	ldi	r24, 0x45	; 69
 730:	80 93 bc 00 	sts	0x00BC, r24
		return -1;
 734:	4f ef       	ldi	r20, 0xFF	; 255
 736:	5f ef       	ldi	r21, 0xFF	; 255
}
 738:	ca 01       	movw	r24, r20
 73a:	1f 91       	pop	r17
 73c:	0f 91       	pop	r16
 73e:	08 95       	ret

00000740 <DS1307_Init>:

uint8_t hora[10];	// XXpm:XX:XX
uint8_t fecha[10];	// dd/mm/aaaa;


void DS1307_Init(void){
 740:	cf 92       	push	r12
 742:	df 92       	push	r13
 744:	ef 92       	push	r14
 746:	ff 92       	push	r15
 748:	0f 93       	push	r16
 74a:	1f 93       	push	r17
 74c:	df 93       	push	r29
 74e:	cf 93       	push	r28
 750:	cd b7       	in	r28, 0x3d	; 61
 752:	de b7       	in	r29, 0x3e	; 62
 754:	60 97       	sbiw	r28, 0x10	; 16
 756:	0f b6       	in	r0, 0x3f	; 63
 758:	f8 94       	cli
 75a:	de bf       	out	0x3e, r29	; 62
 75c:	0f be       	out	0x3f, r0	; 63
 75e:	cd bf       	out	0x3d, r28	; 61

	

	uint8_t DS1307_data[8];
	int error;
	USART0_EnviarLn("  - Comienza leer");
 760:	81 e1       	ldi	r24, 0x11	; 17
 762:	90 e0       	ldi	r25, 0x00	; 0
 764:	60 e0       	ldi	r22, 0x00	; 0
 766:	71 e0       	ldi	r23, 0x01	; 1
 768:	0e 94 2e 01 	call	0x25c	; 0x25c <USART0_EnviarStrLen>
 76c:	8d e0       	ldi	r24, 0x0D	; 13
 76e:	0e 94 1f 01 	call	0x23e	; 0x23e <USART0_Enviar>
	error = I2C_LeerBytes(DS1307_ID, DS1307_ADDR, 0x00, 8, DS1307_data);
 772:	8d e0       	ldi	r24, 0x0D	; 13
 774:	60 e0       	ldi	r22, 0x00	; 0
 776:	40 e0       	ldi	r20, 0x00	; 0
 778:	28 e0       	ldi	r18, 0x08	; 8
 77a:	30 e0       	ldi	r19, 0x00	; 0
 77c:	8e 01       	movw	r16, r28
 77e:	0f 5f       	subi	r16, 0xFF	; 255
 780:	1f 4f       	sbci	r17, 0xFF	; 255
 782:	0e 94 f1 02 	call	0x5e2	; 0x5e2 <I2C_LeerBytes>

	if(error == -1){
 786:	8f 5f       	subi	r24, 0xFF	; 255
 788:	9f 4f       	sbci	r25, 0xFF	; 255
 78a:	29 f4       	brne	.+10     	; 0x796 <DS1307_Init+0x56>
		USART0_EnviarLn("ERROR!!");
 78c:	87 e0       	ldi	r24, 0x07	; 7
 78e:	90 e0       	ldi	r25, 0x00	; 0
 790:	62 e1       	ldi	r22, 0x12	; 18
 792:	71 e0       	ldi	r23, 0x01	; 1
 794:	04 c0       	rjmp	.+8      	; 0x79e <DS1307_Init+0x5e>
		}
	else{
		USART0_EnviarLn("Leer OK");
 796:	87 e0       	ldi	r24, 0x07	; 7
 798:	90 e0       	ldi	r25, 0x00	; 0
 79a:	6a e1       	ldi	r22, 0x1A	; 26
 79c:	71 e0       	ldi	r23, 0x01	; 1
 79e:	0e 94 2e 01 	call	0x25c	; 0x25c <USART0_EnviarStrLen>
 7a2:	8d e0       	ldi	r24, 0x0D	; 13
 7a4:	0e 94 1f 01 	call	0x23e	; 0x23e <USART0_Enviar>


//	USART0_EnviarLn("CODIGO ERROR: ");USART0_EnviarLn(error);

	
	USART0_EnviarLn("Datos del Reloj:");
 7a8:	80 e1       	ldi	r24, 0x10	; 16
 7aa:	90 e0       	ldi	r25, 0x00	; 0
 7ac:	62 e2       	ldi	r22, 0x22	; 34
 7ae:	71 e0       	ldi	r23, 0x01	; 1
 7b0:	0e 94 2e 01 	call	0x25c	; 0x25c <USART0_EnviarStrLen>
 7b4:	8d e0       	ldi	r24, 0x0D	; 13
 7b6:	0e 94 1f 01 	call	0x23e	; 0x23e <USART0_Enviar>
	USART0_EnviarLn(DS1307_data[0]);
 7ba:	69 81       	ldd	r22, Y+1	; 0x01
 7bc:	80 e0       	ldi	r24, 0x00	; 0
 7be:	90 e0       	ldi	r25, 0x00	; 0
 7c0:	70 e0       	ldi	r23, 0x00	; 0
 7c2:	0e 94 2e 01 	call	0x25c	; 0x25c <USART0_EnviarStrLen>
 7c6:	8d e0       	ldi	r24, 0x0D	; 13
 7c8:	0e 94 1f 01 	call	0x23e	; 0x23e <USART0_Enviar>
	USART0_EnviarLn(DS1307_data[1]);
 7cc:	6a 81       	ldd	r22, Y+2	; 0x02
 7ce:	80 e0       	ldi	r24, 0x00	; 0
 7d0:	90 e0       	ldi	r25, 0x00	; 0
 7d2:	70 e0       	ldi	r23, 0x00	; 0
 7d4:	0e 94 2e 01 	call	0x25c	; 0x25c <USART0_EnviarStrLen>
 7d8:	8d e0       	ldi	r24, 0x0D	; 13
 7da:	0e 94 1f 01 	call	0x23e	; 0x23e <USART0_Enviar>
	USART0_EnviarLn(DS1307_data[2]);
 7de:	6b 81       	ldd	r22, Y+3	; 0x03
 7e0:	80 e0       	ldi	r24, 0x00	; 0
 7e2:	90 e0       	ldi	r25, 0x00	; 0
 7e4:	70 e0       	ldi	r23, 0x00	; 0
 7e6:	0e 94 2e 01 	call	0x25c	; 0x25c <USART0_EnviarStrLen>
 7ea:	8d e0       	ldi	r24, 0x0D	; 13
 7ec:	0e 94 1f 01 	call	0x23e	; 0x23e <USART0_Enviar>
	USART0_EnviarLn(DS1307_data[3]);
 7f0:	6c 81       	ldd	r22, Y+4	; 0x04
 7f2:	80 e0       	ldi	r24, 0x00	; 0
 7f4:	90 e0       	ldi	r25, 0x00	; 0
 7f6:	70 e0       	ldi	r23, 0x00	; 0
 7f8:	0e 94 2e 01 	call	0x25c	; 0x25c <USART0_EnviarStrLen>
 7fc:	8d e0       	ldi	r24, 0x0D	; 13
 7fe:	0e 94 1f 01 	call	0x23e	; 0x23e <USART0_Enviar>
	USART0_EnviarLn(DS1307_data[4]);
 802:	6d 81       	ldd	r22, Y+5	; 0x05
 804:	80 e0       	ldi	r24, 0x00	; 0
 806:	90 e0       	ldi	r25, 0x00	; 0
 808:	70 e0       	ldi	r23, 0x00	; 0
 80a:	0e 94 2e 01 	call	0x25c	; 0x25c <USART0_EnviarStrLen>
 80e:	8d e0       	ldi	r24, 0x0D	; 13
 810:	0e 94 1f 01 	call	0x23e	; 0x23e <USART0_Enviar>
	USART0_EnviarLn(DS1307_data[5]);
 814:	6e 81       	ldd	r22, Y+6	; 0x06
 816:	80 e0       	ldi	r24, 0x00	; 0
 818:	90 e0       	ldi	r25, 0x00	; 0
 81a:	70 e0       	ldi	r23, 0x00	; 0
 81c:	0e 94 2e 01 	call	0x25c	; 0x25c <USART0_EnviarStrLen>
 820:	8d e0       	ldi	r24, 0x0D	; 13
 822:	0e 94 1f 01 	call	0x23e	; 0x23e <USART0_Enviar>
	USART0_EnviarLn(DS1307_data[6]);
 826:	6f 81       	ldd	r22, Y+7	; 0x07
 828:	80 e0       	ldi	r24, 0x00	; 0
 82a:	90 e0       	ldi	r25, 0x00	; 0
 82c:	70 e0       	ldi	r23, 0x00	; 0
 82e:	0e 94 2e 01 	call	0x25c	; 0x25c <USART0_EnviarStrLen>
 832:	8d e0       	ldi	r24, 0x0D	; 13
 834:	0e 94 1f 01 	call	0x23e	; 0x23e <USART0_Enviar>
	USART0_EnviarLn(DS1307_data[7]);
 838:	68 85       	ldd	r22, Y+8	; 0x08
 83a:	80 e0       	ldi	r24, 0x00	; 0
 83c:	90 e0       	ldi	r25, 0x00	; 0
 83e:	70 e0       	ldi	r23, 0x00	; 0
 840:	0e 94 2e 01 	call	0x25c	; 0x25c <USART0_EnviarStrLen>
 844:	8d e0       	ldi	r24, 0x0D	; 13
 846:	0e 94 1f 01 	call	0x23e	; 0x23e <USART0_Enviar>
	USART0_EnviarLn("Fin Datos Reloj");
 84a:	8f e0       	ldi	r24, 0x0F	; 15
 84c:	90 e0       	ldi	r25, 0x00	; 0
 84e:	63 e3       	ldi	r22, 0x33	; 51
 850:	71 e0       	ldi	r23, 0x01	; 1
 852:	0e 94 2e 01 	call	0x25c	; 0x25c <USART0_EnviarStrLen>
 856:	8d e0       	ldi	r24, 0x0D	; 13
 858:	0e 94 1f 01 	call	0x23e	; 0x23e <USART0_Enviar>

	uint8_t DS1307_data2[8];

	DS1307_data2[0] = 0x00;
 85c:	19 86       	std	Y+9, r1	; 0x09
	DS1307_data2[1] = 0x00;
 85e:	1a 86       	std	Y+10, r1	; 0x0a
	DS1307_data2[2] = 0x00;
 860:	1b 86       	std	Y+11, r1	; 0x0b
	DS1307_data2[3] = 0x00;
 862:	1c 86       	std	Y+12, r1	; 0x0c
	DS1307_data2[4] = 0x00;
 864:	1d 86       	std	Y+13, r1	; 0x0d
	DS1307_data2[5] = 0x00;
 866:	1e 86       	std	Y+14, r1	; 0x0e
	DS1307_data2[6] = 0x00;
 868:	1f 86       	std	Y+15, r1	; 0x0f
	DS1307_data2[7] = 0x00;
 86a:	18 8a       	std	Y+16, r1	; 0x10


	error = I2C_EscribirBytes(DS1307_ID, DS1307_ADDR, 0x00, 1, DS1307_data2);
 86c:	8d e0       	ldi	r24, 0x0D	; 13
 86e:	60 e0       	ldi	r22, 0x00	; 0
 870:	40 e0       	ldi	r20, 0x00	; 0
 872:	21 e0       	ldi	r18, 0x01	; 1
 874:	30 e0       	ldi	r19, 0x00	; 0
 876:	8e 01       	movw	r16, r28
 878:	07 5f       	subi	r16, 0xF7	; 247
 87a:	1f 4f       	sbci	r17, 0xFF	; 255
 87c:	0e 94 6f 02 	call	0x4de	; 0x4de <I2C_EscribirBytes>
 880:	28 ee       	ldi	r18, 0xE8	; 232
 882:	33 e0       	ldi	r19, 0x03	; 3
    milliseconds can be achieved.
 */
void
_delay_loop_2(uint16_t __count)
{
	__asm__ volatile (
 884:	88 ec       	ldi	r24, 0xC8	; 200
 886:	e8 2e       	mov	r14, r24
 888:	f1 2c       	mov	r15, r1
			_delay_ms(100);_delay_ms(100);_delay_ms(100);_delay_ms(100);_delay_ms(100);
			_delay_ms(100);_delay_ms(100);_delay_ms(100);_delay_ms(100);_delay_ms(100);



			error = I2C_LeerBytes(DS1307_ID, DS1307_ADDR, 0x00, 8, DS1307_data);
 88a:	6e 01       	movw	r12, r28
 88c:	08 94       	sec
 88e:	c1 1c       	adc	r12, r1
 890:	d1 1c       	adc	r13, r1
 892:	05 c0       	rjmp	.+10     	; 0x89e <DS1307_Init+0x15e>
 894:	c7 01       	movw	r24, r14
 896:	01 97       	sbiw	r24, 0x01	; 1
 898:	f1 f7       	brne	.-4      	; 0x896 <DS1307_Init+0x156>
		{
			// wait 1/10 ms
			_delay_loop_2(((F_CPU) / 4e3) / 10);
			__ticks --;
 89a:	21 50       	subi	r18, 0x01	; 1
 89c:	30 40       	sbci	r19, 0x00	; 0
		__ticks = 1;
	else if (__tmp > 65535)
	{
		//	__ticks = requested delay in 1/10 ms
		__ticks = (uint16_t) (__ms * 10.0);
		while(__ticks)
 89e:	21 15       	cp	r18, r1
 8a0:	31 05       	cpc	r19, r1
 8a2:	c1 f7       	brne	.-16     	; 0x894 <DS1307_Init+0x154>
 8a4:	88 ee       	ldi	r24, 0xE8	; 232
 8a6:	93 e0       	ldi	r25, 0x03	; 3
 8a8:	f7 01       	movw	r30, r14
 8aa:	31 97       	sbiw	r30, 0x01	; 1
 8ac:	f1 f7       	brne	.-4      	; 0x8aa <DS1307_Init+0x16a>
		{
			// wait 1/10 ms
			_delay_loop_2(((F_CPU) / 4e3) / 10);
			__ticks --;
 8ae:	01 97       	sbiw	r24, 0x01	; 1
		__ticks = 1;
	else if (__tmp > 65535)
	{
		//	__ticks = requested delay in 1/10 ms
		__ticks = (uint16_t) (__ms * 10.0);
		while(__ticks)
 8b0:	d9 f7       	brne	.-10     	; 0x8a8 <DS1307_Init+0x168>
 8b2:	88 ee       	ldi	r24, 0xE8	; 232
 8b4:	93 e0       	ldi	r25, 0x03	; 3
 8b6:	f7 01       	movw	r30, r14
 8b8:	31 97       	sbiw	r30, 0x01	; 1
 8ba:	f1 f7       	brne	.-4      	; 0x8b8 <DS1307_Init+0x178>
		{
			// wait 1/10 ms
			_delay_loop_2(((F_CPU) / 4e3) / 10);
			__ticks --;
 8bc:	01 97       	sbiw	r24, 0x01	; 1
		__ticks = 1;
	else if (__tmp > 65535)
	{
		//	__ticks = requested delay in 1/10 ms
		__ticks = (uint16_t) (__ms * 10.0);
		while(__ticks)
 8be:	d9 f7       	brne	.-10     	; 0x8b6 <DS1307_Init+0x176>
 8c0:	88 ee       	ldi	r24, 0xE8	; 232
 8c2:	93 e0       	ldi	r25, 0x03	; 3
 8c4:	f7 01       	movw	r30, r14
 8c6:	31 97       	sbiw	r30, 0x01	; 1
 8c8:	f1 f7       	brne	.-4      	; 0x8c6 <DS1307_Init+0x186>
		{
			// wait 1/10 ms
			_delay_loop_2(((F_CPU) / 4e3) / 10);
			__ticks --;
 8ca:	01 97       	sbiw	r24, 0x01	; 1
		__ticks = 1;
	else if (__tmp > 65535)
	{
		//	__ticks = requested delay in 1/10 ms
		__ticks = (uint16_t) (__ms * 10.0);
		while(__ticks)
 8cc:	d9 f7       	brne	.-10     	; 0x8c4 <DS1307_Init+0x184>
 8ce:	88 ee       	ldi	r24, 0xE8	; 232
 8d0:	93 e0       	ldi	r25, 0x03	; 3
 8d2:	f7 01       	movw	r30, r14
 8d4:	31 97       	sbiw	r30, 0x01	; 1
 8d6:	f1 f7       	brne	.-4      	; 0x8d4 <DS1307_Init+0x194>
		{
			// wait 1/10 ms
			_delay_loop_2(((F_CPU) / 4e3) / 10);
			__ticks --;
 8d8:	01 97       	sbiw	r24, 0x01	; 1
		__ticks = 1;
	else if (__tmp > 65535)
	{
		//	__ticks = requested delay in 1/10 ms
		__ticks = (uint16_t) (__ms * 10.0);
		while(__ticks)
 8da:	d9 f7       	brne	.-10     	; 0x8d2 <DS1307_Init+0x192>
 8dc:	88 ee       	ldi	r24, 0xE8	; 232
 8de:	93 e0       	ldi	r25, 0x03	; 3
 8e0:	f7 01       	movw	r30, r14
 8e2:	31 97       	sbiw	r30, 0x01	; 1
 8e4:	f1 f7       	brne	.-4      	; 0x8e2 <DS1307_Init+0x1a2>
		{
			// wait 1/10 ms
			_delay_loop_2(((F_CPU) / 4e3) / 10);
			__ticks --;
 8e6:	01 97       	sbiw	r24, 0x01	; 1
		__ticks = 1;
	else if (__tmp > 65535)
	{
		//	__ticks = requested delay in 1/10 ms
		__ticks = (uint16_t) (__ms * 10.0);
		while(__ticks)
 8e8:	d9 f7       	brne	.-10     	; 0x8e0 <DS1307_Init+0x1a0>
 8ea:	88 ee       	ldi	r24, 0xE8	; 232
 8ec:	93 e0       	ldi	r25, 0x03	; 3
 8ee:	f7 01       	movw	r30, r14
 8f0:	31 97       	sbiw	r30, 0x01	; 1
 8f2:	f1 f7       	brne	.-4      	; 0x8f0 <DS1307_Init+0x1b0>
		{
			// wait 1/10 ms
			_delay_loop_2(((F_CPU) / 4e3) / 10);
			__ticks --;
 8f4:	01 97       	sbiw	r24, 0x01	; 1
		__ticks = 1;
	else if (__tmp > 65535)
	{
		//	__ticks = requested delay in 1/10 ms
		__ticks = (uint16_t) (__ms * 10.0);
		while(__ticks)
 8f6:	d9 f7       	brne	.-10     	; 0x8ee <DS1307_Init+0x1ae>
 8f8:	88 ee       	ldi	r24, 0xE8	; 232
 8fa:	93 e0       	ldi	r25, 0x03	; 3
 8fc:	f7 01       	movw	r30, r14
 8fe:	31 97       	sbiw	r30, 0x01	; 1
 900:	f1 f7       	brne	.-4      	; 0x8fe <DS1307_Init+0x1be>
		{
			// wait 1/10 ms
			_delay_loop_2(((F_CPU) / 4e3) / 10);
			__ticks --;
 902:	01 97       	sbiw	r24, 0x01	; 1
		__ticks = 1;
	else if (__tmp > 65535)
	{
		//	__ticks = requested delay in 1/10 ms
		__ticks = (uint16_t) (__ms * 10.0);
		while(__ticks)
 904:	d9 f7       	brne	.-10     	; 0x8fc <DS1307_Init+0x1bc>
 906:	88 ee       	ldi	r24, 0xE8	; 232
 908:	93 e0       	ldi	r25, 0x03	; 3
 90a:	f7 01       	movw	r30, r14
 90c:	31 97       	sbiw	r30, 0x01	; 1
 90e:	f1 f7       	brne	.-4      	; 0x90c <DS1307_Init+0x1cc>
		{
			// wait 1/10 ms
			_delay_loop_2(((F_CPU) / 4e3) / 10);
			__ticks --;
 910:	01 97       	sbiw	r24, 0x01	; 1
		__ticks = 1;
	else if (__tmp > 65535)
	{
		//	__ticks = requested delay in 1/10 ms
		__ticks = (uint16_t) (__ms * 10.0);
		while(__ticks)
 912:	d9 f7       	brne	.-10     	; 0x90a <DS1307_Init+0x1ca>
 914:	88 ee       	ldi	r24, 0xE8	; 232
 916:	93 e0       	ldi	r25, 0x03	; 3
 918:	f7 01       	movw	r30, r14
 91a:	31 97       	sbiw	r30, 0x01	; 1
 91c:	f1 f7       	brne	.-4      	; 0x91a <DS1307_Init+0x1da>
		{
			// wait 1/10 ms
			_delay_loop_2(((F_CPU) / 4e3) / 10);
			__ticks --;
 91e:	01 97       	sbiw	r24, 0x01	; 1
		__ticks = 1;
	else if (__tmp > 65535)
	{
		//	__ticks = requested delay in 1/10 ms
		__ticks = (uint16_t) (__ms * 10.0);
		while(__ticks)
 920:	d9 f7       	brne	.-10     	; 0x918 <DS1307_Init+0x1d8>
 922:	8d e0       	ldi	r24, 0x0D	; 13
 924:	60 e0       	ldi	r22, 0x00	; 0
 926:	40 e0       	ldi	r20, 0x00	; 0
 928:	28 e0       	ldi	r18, 0x08	; 8
 92a:	30 e0       	ldi	r19, 0x00	; 0
 92c:	86 01       	movw	r16, r12
 92e:	0e 94 f1 02 	call	0x5e2	; 0x5e2 <I2C_LeerBytes>
			USART0_Enviar(DS1307_data[1]);USART0_Enviar(':');USART0_Enviar(DS1307_data[0]);USART0_Enviar(0x0D);
 932:	8a 81       	ldd	r24, Y+2	; 0x02
 934:	0e 94 1f 01 	call	0x23e	; 0x23e <USART0_Enviar>
 938:	8a e3       	ldi	r24, 0x3A	; 58
 93a:	0e 94 1f 01 	call	0x23e	; 0x23e <USART0_Enviar>
 93e:	89 81       	ldd	r24, Y+1	; 0x01
 940:	0e 94 1f 01 	call	0x23e	; 0x23e <USART0_Enviar>
 944:	8d e0       	ldi	r24, 0x0D	; 13
 946:	0e 94 1f 01 	call	0x23e	; 0x23e <USART0_Enviar>
 94a:	28 ee       	ldi	r18, 0xE8	; 232
 94c:	33 e0       	ldi	r19, 0x03	; 3
 94e:	a2 cf       	rjmp	.-188    	; 0x894 <DS1307_Init+0x154>

00000950 <_exit>:
 950:	f8 94       	cli

00000952 <__stop_program>:
 952:	ff cf       	rjmp	.-2      	; 0x952 <__stop_program>
